libcairomm-1.16.so.1:_Z20_txnal_cow_string_D1Pv
libcairomm-1.16.so.1:_Z23_txnal_cow_string_c_strPKv
libcairomm-1.16.so.1:_Z23_txnal_sso_string_c_strPKv
libcairomm-1.16.so.1:_Z26_txnal_logic_error_get_msgPv
libcairomm-1.16.so.1:_Z27_txnal_cow_string_D1_commitPv
libcairomm-1.16.so.1:_Z28_txnal_runtime_error_get_msgPv
libcairomm-1.16.so.1:_Z35_txnal_cow_string_C1_for_exceptionsPvPKcS_
libcairomm-1.16.so.1:_ZGTtNKSt11logic_error4whatEv
libcairomm-1.16.so.1:_ZGTtNKSt13bad_exception4whatEv
libcairomm-1.16.so.1:_ZGTtNKSt13bad_exceptionD1Ev
libcairomm-1.16.so.1:_ZGTtNKSt13runtime_error4whatEv
libcairomm-1.16.so.1:_ZGTtNKSt9exception4whatEv
libcairomm-1.16.so.1:_ZGTtNKSt9exceptionD1Ev
libcairomm-1.16.so.1:_ZGTtNSt11logic_errorC1EPKc
libcairomm-1.16.so.1:_ZGTtNSt11logic_errorC1ERKNSt7__cxx1112basic_stringIcSt11char_traitsIcESaIcEEE
libcairomm-1.16.so.1:_ZGTtNSt11logic_errorC2EPKc
libcairomm-1.16.so.1:_ZGTtNSt11logic_errorC2ERKNSt7__cxx1112basic_stringIcSt11char_traitsIcESaIcEEE
libcairomm-1.16.so.1:_ZGTtNSt11logic_errorD0Ev
libcairomm-1.16.so.1:_ZGTtNSt11logic_errorD1Ev
libcairomm-1.16.so.1:_ZGTtNSt11logic_errorD2Ev
libcairomm-1.16.so.1:_ZGTtNSt11range_errorC1EPKc
libcairomm-1.16.so.1:_ZGTtNSt11range_errorC1ERKNSt7__cxx1112basic_stringIcSt11char_traitsIcESaIcEEE
libcairomm-1.16.so.1:_ZGTtNSt11range_errorC2EPKc
libcairomm-1.16.so.1:_ZGTtNSt11range_errorC2ERKNSt7__cxx1112basic_stringIcSt11char_traitsIcESaIcEEE
libcairomm-1.16.so.1:_ZGTtNSt11range_errorD0Ev
libcairomm-1.16.so.1:_ZGTtNSt11range_errorD1Ev
libcairomm-1.16.so.1:_ZGTtNSt11range_errorD2Ev
libcairomm-1.16.so.1:_ZGTtNSt12domain_errorC1EPKc
libcairomm-1.16.so.1:_ZGTtNSt12domain_errorC1ERKNSt7__cxx1112basic_stringIcSt11char_traitsIcESaIcEEE
libcairomm-1.16.so.1:_ZGTtNSt12domain_errorC2EPKc
libcairomm-1.16.so.1:_ZGTtNSt12domain_errorC2ERKNSt7__cxx1112basic_stringIcSt11char_traitsIcESaIcEEE
libcairomm-1.16.so.1:_ZGTtNSt12domain_errorD0Ev
libcairomm-1.16.so.1:_ZGTtNSt12domain_errorD1Ev
libcairomm-1.16.so.1:_ZGTtNSt12domain_errorD2Ev
libcairomm-1.16.so.1:_ZGTtNSt12length_errorC1EPKc
libcairomm-1.16.so.1:_ZGTtNSt12length_errorC1ERKNSt7__cxx1112basic_stringIcSt11char_traitsIcESaIcEEE
libcairomm-1.16.so.1:_ZGTtNSt12length_errorC2EPKc
libcairomm-1.16.so.1:_ZGTtNSt12length_errorC2ERKNSt7__cxx1112basic_stringIcSt11char_traitsIcESaIcEEE
libcairomm-1.16.so.1:_ZGTtNSt12length_errorD0Ev
libcairomm-1.16.so.1:_ZGTtNSt12length_errorD1Ev
libcairomm-1.16.so.1:_ZGTtNSt12length_errorD2Ev
libcairomm-1.16.so.1:_ZGTtNSt12out_of_rangeC1EPKc
libcairomm-1.16.so.1:_ZGTtNSt12out_of_rangeC1ERKNSt7__cxx1112basic_stringIcSt11char_traitsIcESaIcEEE
libcairomm-1.16.so.1:_ZGTtNSt12out_of_rangeC2EPKc
libcairomm-1.16.so.1:_ZGTtNSt12out_of_rangeC2ERKNSt7__cxx1112basic_stringIcSt11char_traitsIcESaIcEEE
libcairomm-1.16.so.1:_ZGTtNSt12out_of_rangeD0Ev
libcairomm-1.16.so.1:_ZGTtNSt12out_of_rangeD1Ev
libcairomm-1.16.so.1:_ZGTtNSt12out_of_rangeD2Ev
libcairomm-1.16.so.1:_ZGTtNSt13runtime_errorC1EPKc
libcairomm-1.16.so.1:_ZGTtNSt13runtime_errorC1ERKNSt7__cxx1112basic_stringIcSt11char_traitsIcESaIcEEE
libcairomm-1.16.so.1:_ZGTtNSt13runtime_errorC2EPKc
libcairomm-1.16.so.1:_ZGTtNSt13runtime_errorC2ERKNSt7__cxx1112basic_stringIcSt11char_traitsIcESaIcEEE
libcairomm-1.16.so.1:_ZGTtNSt13runtime_errorD0Ev
libcairomm-1.16.so.1:_ZGTtNSt13runtime_errorD1Ev
libcairomm-1.16.so.1:_ZGTtNSt13runtime_errorD2Ev
libcairomm-1.16.so.1:_ZGTtNSt14overflow_errorC1EPKc
libcairomm-1.16.so.1:_ZGTtNSt14overflow_errorC1ERKNSt7__cxx1112basic_stringIcSt11char_traitsIcESaIcEEE
libcairomm-1.16.so.1:_ZGTtNSt14overflow_errorC2EPKc
libcairomm-1.16.so.1:_ZGTtNSt14overflow_errorC2ERKNSt7__cxx1112basic_stringIcSt11char_traitsIcESaIcEEE
libcairomm-1.16.so.1:_ZGTtNSt14overflow_errorD0Ev
libcairomm-1.16.so.1:_ZGTtNSt14overflow_errorD1Ev
libcairomm-1.16.so.1:_ZGTtNSt14overflow_errorD2Ev
libcairomm-1.16.so.1:_ZGTtNSt15underflow_errorC1EPKc
libcairomm-1.16.so.1:_ZGTtNSt15underflow_errorC1ERKNSt7__cxx1112basic_stringIcSt11char_traitsIcESaIcEEE
libcairomm-1.16.so.1:_ZGTtNSt15underflow_errorC2EPKc
libcairomm-1.16.so.1:_ZGTtNSt15underflow_errorC2ERKNSt7__cxx1112basic_stringIcSt11char_traitsIcESaIcEEE
libcairomm-1.16.so.1:_ZGTtNSt15underflow_errorD0Ev
libcairomm-1.16.so.1:_ZGTtNSt15underflow_errorD1Ev
libcairomm-1.16.so.1:_ZGTtNSt15underflow_errorD2Ev
libcairomm-1.16.so.1:_ZGTtNSt16invalid_argumentC1EPKc
libcairomm-1.16.so.1:_ZGTtNSt16invalid_argumentC1ERKNSt7__cxx1112basic_stringIcSt11char_traitsIcESaIcEEE
libcairomm-1.16.so.1:_ZGTtNSt16invalid_argumentC2EPKc
libcairomm-1.16.so.1:_ZGTtNSt16invalid_argumentC2ERKNSt7__cxx1112basic_stringIcSt11char_traitsIcESaIcEEE
libcairomm-1.16.so.1:_ZGTtNSt16invalid_argumentD0Ev
libcairomm-1.16.so.1:_ZGTtNSt16invalid_argumentD1Ev
libcairomm-1.16.so.1:_ZGTtNSt16invalid_argumentD2Ev
libcairomm-1.16.so.1:_ZN10__cxxabiv111__terminateEPFvvE
libcairomm-1.16.so.1:_ZN10__cxxabiv112__unexpectedEPFvvE
libcairomm-1.16.so.1:_ZN10__cxxabiv115__forced_unwindD0Ev
libcairomm-1.16.so.1:_ZN10__cxxabiv115__forced_unwindD1Ev
libcairomm-1.16.so.1:_ZN10__cxxabiv115__forced_unwindD2Ev
libcairomm-1.16.so.1:_ZN10__cxxabiv117__class_type_infoD0Ev
libcairomm-1.16.so.1:_ZN10__cxxabiv117__class_type_infoD1Ev
libcairomm-1.16.so.1:_ZN10__cxxabiv117__class_type_infoD2Ev
libcairomm-1.16.so.1:_ZN10__cxxabiv119__foreign_exceptionD0Ev
libcairomm-1.16.so.1:_ZN10__cxxabiv119__foreign_exceptionD1Ev
libcairomm-1.16.so.1:_ZN10__cxxabiv119__foreign_exceptionD2Ev
libcairomm-1.16.so.1:_ZN10__cxxabiv120__si_class_type_infoD0Ev
libcairomm-1.16.so.1:_ZN10__cxxabiv120__si_class_type_infoD1Ev
libcairomm-1.16.so.1:_ZN10__cxxabiv120__si_class_type_infoD2Ev
libcairomm-1.16.so.1:_ZN10__cxxabiv121__vmi_class_type_infoD0Ev
libcairomm-1.16.so.1:_ZN10__cxxabiv121__vmi_class_type_infoD1Ev
libcairomm-1.16.so.1:_ZN10__cxxabiv121__vmi_class_type_infoD2Ev
libcairomm-1.16.so.1:_ZN5Cairo10FtFontFace14set_synthesizeENS_12FtSynthesizeE
libcairomm-1.16.so.1:_ZN5Cairo10FtFontFace16unset_synthesizeENS_12FtSynthesizeE
libcairomm-1.16.so.1:_ZN5Cairo10FtFontFace6createEP10_FcPattern
libcairomm-1.16.so.1:_ZN5Cairo10FtFontFace6createEP11FT_FaceRec_i
libcairomm-1.16.so.1:_ZN5Cairo10FtFontFaceC1EP10_FcPattern
libcairomm-1.16.so.1:_ZN5Cairo10FtFontFaceC1EP11FT_FaceRec_i
libcairomm-1.16.so.1:_ZN5Cairo10FtFontFaceC2EP10_FcPattern
libcairomm-1.16.so.1:_ZN5Cairo10FtFontFaceC2EP11FT_FaceRec_i
libcairomm-1.16.so.1:_ZN5Cairo10PdfSurface12get_versionsEv
libcairomm-1.16.so.1:_ZN5Cairo10PdfSurface17create_for_streamERKN4sigc4slotIF13_cairo_statusPKhjEJEEEdd
libcairomm-1.16.so.1:_ZN5Cairo10PdfSurface17version_to_stringB5cxx11ENS_10PdfVersionE
libcairomm-1.16.so.1:_ZN5Cairo10PdfSurface19restrict_to_versionENS_10PdfVersionE
libcairomm-1.16.so.1:_ZN5Cairo10PdfSurface6createENSt7__cxx1112basic_stringIcSt11char_traitsIcESaIcEEEdd
libcairomm-1.16.so.1:_ZN5Cairo10PdfSurface8set_sizeEdd
libcairomm-1.16.so.1:_ZN5Cairo10PdfSurfaceC1EP14_cairo_surfaceb
libcairomm-1.16.so.1:_ZN5Cairo10PdfSurfaceC2EP14_cairo_surfaceb
libcairomm-1.16.so.1:_ZN5Cairo10PdfSurfaceD0Ev
libcairomm-1.16.so.1:_ZN5Cairo10PdfSurfaceD1Ev
libcairomm-1.16.so.1:_ZN5Cairo10PdfSurfaceD2Ev
libcairomm-1.16.so.1:_ZN5Cairo10ScaledFont14text_to_glyphsEddRKNSt7__cxx1112basic_stringIcSt11char_traitsIcESaIcEEERSt6vectorI13cairo_glyph_tSaISA_EERS9_I20cairo_text_cluster_tSaISE_EERNS_16TextClusterFlagsE
libcairomm-1.16.so.1:_ZN5Cairo10ScaledFont6createERKSt10shared_ptrINS_8FontFaceEERKNS_6MatrixES8_RKNS_11FontOptionsE
libcairomm-1.16.so.1:_ZN5Cairo10ScaledFontC1EP18_cairo_scaled_fontb
libcairomm-1.16.so.1:_ZN5Cairo10ScaledFontC1ERKSt10shared_ptrINS_8FontFaceEERKNS_6MatrixES8_RKNS_11FontOptionsE
libcairomm-1.16.so.1:_ZN5Cairo10ScaledFontC2EP18_cairo_scaled_fontb
libcairomm-1.16.so.1:_ZN5Cairo10ScaledFontC2ERKSt10shared_ptrINS_8FontFaceEERKNS_6MatrixES8_RKNS_11FontOptionsE
libcairomm-1.16.so.1:_ZN5Cairo10ScaledFontD0Ev
libcairomm-1.16.so.1:_ZN5Cairo10ScaledFontD1Ev
libcairomm-1.16.so.1:_ZN5Cairo10ScaledFontD2Ev
libcairomm-1.16.so.1:_ZN5Cairo10SvgSurface12get_versionsEv
libcairomm-1.16.so.1:_ZN5Cairo10SvgSurface17create_for_streamERKN4sigc4slotIF13_cairo_statusPKhjEJEEEdd
libcairomm-1.16.so.1:_ZN5Cairo10SvgSurface17version_to_stringB5cxx11ENS_10SvgVersionE
libcairomm-1.16.so.1:_ZN5Cairo10SvgSurface19restrict_to_versionENS_10SvgVersionE
libcairomm-1.16.so.1:_ZN5Cairo10SvgSurface6createENSt7__cxx1112basic_stringIcSt11char_traitsIcESaIcEEEdd
libcairomm-1.16.so.1:_ZN5Cairo10SvgSurfaceC1EP14_cairo_surfaceb
libcairomm-1.16.so.1:_ZN5Cairo10SvgSurfaceC2EP14_cairo_surfaceb
libcairomm-1.16.so.1:_ZN5Cairo10SvgSurfaceD0Ev
libcairomm-1.16.so.1:_ZN5Cairo10SvgSurfaceD1Ev
libcairomm-1.16.so.1:_ZN5Cairo10SvgSurfaceD2Ev
libcairomm-1.16.so.1:_ZN5Cairo11FontOptions10substituteEP10_FcPattern
libcairomm-1.16.so.1:_ZN5Cairo11FontOptions13set_antialiasENS_9AntialiasE
libcairomm-1.16.so.1:_ZN5Cairo11FontOptions14set_hint_styleENS0_9HintStyleE
libcairomm-1.16.so.1:_ZN5Cairo11FontOptions16set_hint_metricsENS0_11HintMetricsE
libcairomm-1.16.so.1:_ZN5Cairo11FontOptions18set_subpixel_orderENS_13SubpixelOrderE
libcairomm-1.16.so.1:_ZN5Cairo11FontOptions5mergeERKS0_
libcairomm-1.16.so.1:_ZN5Cairo11FontOptionsC1EP19_cairo_font_optionsb
libcairomm-1.16.so.1:_ZN5Cairo11FontOptionsC1ERKS0_
libcairomm-1.16.so.1:_ZN5Cairo11FontOptionsC1Ev
libcairomm-1.16.so.1:_ZN5Cairo11FontOptionsC2EP19_cairo_font_optionsb
libcairomm-1.16.so.1:_ZN5Cairo11FontOptionsC2ERKS0_
libcairomm-1.16.so.1:_ZN5Cairo11FontOptionsC2Ev
libcairomm-1.16.so.1:_ZN5Cairo11FontOptionsD0Ev
libcairomm-1.16.so.1:_ZN5Cairo11FontOptionsD1Ev
libcairomm-1.16.so.1:_ZN5Cairo11FontOptionsD2Ev
libcairomm-1.16.so.1:_ZN5Cairo11FontOptionsaSERKS0_
libcairomm-1.16.so.1:_ZN5Cairo11ToyFontFace6createERKNSt7__cxx1112basic_stringIcSt11char_traitsIcESaIcEEENS0_5SlantENS0_6WeightE
libcairomm-1.16.so.1:_ZN5Cairo11ToyFontFaceC1ERKNSt7__cxx1112basic_stringIcSt11char_traitsIcESaIcEEENS0_5SlantENS0_6WeightE
libcairomm-1.16.so.1:_ZN5Cairo11ToyFontFaceC2ERKNSt7__cxx1112basic_stringIcSt11char_traitsIcESaIcEEENS0_5SlantENS0_6WeightE
libcairomm-1.16.so.1:_ZN5Cairo11XlibSurface10get_screenEv
libcairomm-1.16.so.1:_ZN5Cairo11XlibSurface10get_visualEv
libcairomm-1.16.so.1:_ZN5Cairo11XlibSurface11get_displayEv
libcairomm-1.16.so.1:_ZN5Cairo11XlibSurface12set_drawableEmii
libcairomm-1.16.so.1:_ZN5Cairo11XlibSurface26create_with_xrender_formatEP9_XDisplaymP6ScreenP17XRenderPictFormatii
libcairomm-1.16.so.1:_ZN5Cairo11XlibSurface6createEP9_XDisplaymP6Screenii
libcairomm-1.16.so.1:_ZN5Cairo11XlibSurface6createEP9_XDisplaymP6Visualii
libcairomm-1.16.so.1:_ZN5Cairo11XlibSurface8set_sizeEii
libcairomm-1.16.so.1:_ZN5Cairo11XlibSurfaceC1EP14_cairo_surfaceb
libcairomm-1.16.so.1:_ZN5Cairo11XlibSurfaceC2EP14_cairo_surfaceb
libcairomm-1.16.so.1:_ZN5Cairo11XlibSurfaceD0Ev
libcairomm-1.16.so.1:_ZN5Cairo11XlibSurfaceD1Ev
libcairomm-1.16.so.1:_ZN5Cairo11XlibSurfaceD2Ev
libcairomm-1.16.so.1:_ZN5Cairo11logic_errorC1E13_cairo_status
libcairomm-1.16.so.1:_ZN5Cairo11logic_errorC2E13_cairo_status
libcairomm-1.16.so.1:_ZN5Cairo11logic_errorD0Ev
libcairomm-1.16.so.1:_ZN5Cairo11logic_errorD1Ev
libcairomm-1.16.so.1:_ZN5Cairo11logic_errorD2Ev
libcairomm-1.16.so.1:_ZN5Cairo12FtScaledFont11unlock_faceEv
libcairomm-1.16.so.1:_ZN5Cairo12FtScaledFont6createERKSt10shared_ptrINS_10FtFontFaceEERKNS_6MatrixES8_RKNS_11FontOptionsE
libcairomm-1.16.so.1:_ZN5Cairo12FtScaledFont9lock_faceEv
libcairomm-1.16.so.1:_ZN5Cairo12FtScaledFontC1ERKSt10shared_ptrINS_10FtFontFaceEERKNS_6MatrixES8_RKNS_11FontOptionsE
libcairomm-1.16.so.1:_ZN5Cairo12FtScaledFontC2ERKSt10shared_ptrINS_10FtFontFaceEERKNS_6MatrixES8_RKNS_11FontOptionsE
libcairomm-1.16.so.1:_ZN5Cairo12ImageSurface15create_from_pngENSt7__cxx1112basic_stringIcSt11char_traitsIcESaIcEEE
libcairomm-1.16.so.1:_ZN5Cairo12ImageSurface22create_from_png_streamERKN4sigc4slotIF13_cairo_statusPhjEJEEE
libcairomm-1.16.so.1:_ZN5Cairo12ImageSurface23format_stride_for_widthENS_7Surface6FormatEi
libcairomm-1.16.so.1:_ZN5Cairo12ImageSurface6createENS_7Surface6FormatEii
libcairomm-1.16.so.1:_ZN5Cairo12ImageSurface6createEPhNS_7Surface6FormatEiii
libcairomm-1.16.so.1:_ZN5Cairo12ImageSurface8get_dataEv
libcairomm-1.16.so.1:_ZN5Cairo12ImageSurfaceC1EP14_cairo_surfaceb
libcairomm-1.16.so.1:_ZN5Cairo12ImageSurfaceC2EP14_cairo_surfaceb
libcairomm-1.16.so.1:_ZN5Cairo12ImageSurfaceD0Ev
libcairomm-1.16.so.1:_ZN5Cairo12ImageSurfaceD1Ev
libcairomm-1.16.so.1:_ZN5Cairo12ImageSurfaceD2Ev
libcairomm-1.16.so.1:_ZN5Cairo12SolidPattern10create_rgbEddd
libcairomm-1.16.so.1:_ZN5Cairo12SolidPattern11create_rgbaEdddd
libcairomm-1.16.so.1:_ZN5Cairo12SolidPatternC1EP14_cairo_patternb
libcairomm-1.16.so.1:_ZN5Cairo12SolidPatternC2EP14_cairo_patternb
libcairomm-1.16.so.1:_ZN5Cairo12SolidPatternD0Ev
libcairomm-1.16.so.1:_ZN5Cairo12SolidPatternD1Ev
libcairomm-1.16.so.1:_ZN5Cairo12SolidPatternD2Ev
libcairomm-1.16.so.1:_ZN5Cairo12UserFontFace14text_to_glyphsERKSt10shared_ptrINS_10ScaledFontEERKNSt7__cxx1112basic_stringIcSt11char_traitsIcESaIcEEERSt6vectorI13cairo_glyph_tSaISF_EERSE_I20cairo_text_cluster_tSaISJ_EERNS_16TextClusterFlagsE
libcairomm-1.16.so.1:_ZN5Cairo12UserFontFace15render_glyph_cbEP18_cairo_scaled_fontmP6_cairoP20cairo_text_extents_t
libcairomm-1.16.so.1:_ZN5Cairo12UserFontFace16unicode_to_glyphERKSt10shared_ptrINS_10ScaledFontEEmRm
libcairomm-1.16.so.1:_ZN5Cairo12UserFontFace17text_to_glyphs_cbEP18_cairo_scaled_fontPKciPP13cairo_glyph_tPiPP20cairo_text_cluster_tS8_P25_cairo_text_cluster_flags
libcairomm-1.16.so.1:_ZN5Cairo12UserFontFace19unicode_to_glyph_cbEP18_cairo_scaled_fontmPm
libcairomm-1.16.so.1:_ZN5Cairo12UserFontFace4initERKSt10shared_ptrINS_10ScaledFontEERKS1_INS_7ContextEER20cairo_font_extents_t
libcairomm-1.16.so.1:_ZN5Cairo12UserFontFace7init_cbEP18_cairo_scaled_fontP6_cairoP20cairo_font_extents_t
libcairomm-1.16.so.1:_ZN5Cairo12UserFontFaceC1Ev
libcairomm-1.16.so.1:_ZN5Cairo12UserFontFaceC2Ev
libcairomm-1.16.so.1:_ZN5Cairo12UserFontFaceD0Ev
libcairomm-1.16.so.1:_ZN5Cairo12UserFontFaceD1Ev
libcairomm-1.16.so.1:_ZN5Cairo12UserFontFaceD2Ev
libcairomm-1.16.so.1:_ZN5Cairo13ScriptSurface17create_for_targetERKSt10shared_ptrINS_6ScriptEERKS1_INS_7SurfaceEE
libcairomm-1.16.so.1:_ZN5Cairo13ScriptSurface6createERKSt10shared_ptrINS_6ScriptEENS_7ContentEdd
libcairomm-1.16.so.1:_ZN5Cairo13ScriptSurfaceC1EP14_cairo_surfaceb
libcairomm-1.16.so.1:_ZN5Cairo13ScriptSurfaceC2EP14_cairo_surfaceb
libcairomm-1.16.so.1:_ZN5Cairo13ScriptSurfaceD0Ev
libcairomm-1.16.so.1:_ZN5Cairo13ScriptSurfaceD1Ev
libcairomm-1.16.so.1:_ZN5Cairo13ScriptSurfaceD2Ev
libcairomm-1.16.so.1:_ZN5Cairo14LinearGradient6createEdddd
libcairomm-1.16.so.1:_ZN5Cairo14LinearGradientC1EP14_cairo_patternb
libcairomm-1.16.so.1:_ZN5Cairo14LinearGradientC1Edddd
libcairomm-1.16.so.1:_ZN5Cairo14LinearGradientC2EP14_cairo_patternb
libcairomm-1.16.so.1:_ZN5Cairo14LinearGradientC2Edddd
libcairomm-1.16.so.1:_ZN5Cairo14LinearGradientD0Ev
libcairomm-1.16.so.1:_ZN5Cairo14LinearGradientD1Ev
libcairomm-1.16.so.1:_ZN5Cairo14LinearGradientD2Ev
libcairomm-1.16.so.1:_ZN5Cairo14RadialGradient6createEdddddd
libcairomm-1.16.so.1:_ZN5Cairo14RadialGradientC1EP14_cairo_patternb
libcairomm-1.16.so.1:_ZN5Cairo14RadialGradientC1Edddddd
libcairomm-1.16.so.1:_ZN5Cairo14RadialGradientC2EP14_cairo_patternb
libcairomm-1.16.so.1:_ZN5Cairo14RadialGradientC2Edddddd
libcairomm-1.16.so.1:_ZN5Cairo14RadialGradientD0Ev
libcairomm-1.16.so.1:_ZN5Cairo14RadialGradientD1Ev
libcairomm-1.16.so.1:_ZN5Cairo14RadialGradientD2Ev
libcairomm-1.16.so.1:_ZN5Cairo14SurfacePattern10set_filterENS0_6FilterE
libcairomm-1.16.so.1:_ZN5Cairo14SurfacePattern11get_surfaceEv
libcairomm-1.16.so.1:_ZN5Cairo14SurfacePattern6createERKSt10shared_ptrINS_7SurfaceEE
libcairomm-1.16.so.1:_ZN5Cairo14SurfacePatternC1EP14_cairo_patternb
libcairomm-1.16.so.1:_ZN5Cairo14SurfacePatternC1ERKSt10shared_ptrINS_7SurfaceEE
libcairomm-1.16.so.1:_ZN5Cairo14SurfacePatternC2EP14_cairo_patternb
libcairomm-1.16.so.1:_ZN5Cairo14SurfacePatternC2ERKSt10shared_ptrINS_7SurfaceEE
libcairomm-1.16.so.1:_ZN5Cairo14SurfacePatternD0Ev
libcairomm-1.16.so.1:_ZN5Cairo14SurfacePatternD1Ev
libcairomm-1.16.so.1:_ZN5Cairo14SurfacePatternD2Ev
libcairomm-1.16.so.1:_ZN5Cairo14scaling_matrixEdd
libcairomm-1.16.so.1:_ZN5Cairo15identity_matrixEv
libcairomm-1.16.so.1:_ZN5Cairo15rotation_matrixEd
libcairomm-1.16.so.1:_ZN5Cairo15throw_exceptionE13_cairo_status
libcairomm-1.16.so.1:_ZN5Cairo16RecordingSurface6createENS_7ContentE
libcairomm-1.16.so.1:_ZN5Cairo16RecordingSurface6createERK16_cairo_rectangleNS_7ContentE
libcairomm-1.16.so.1:_ZN5Cairo16RecordingSurfaceC1EP14_cairo_surfaceb
libcairomm-1.16.so.1:_ZN5Cairo16RecordingSurfaceC2EP14_cairo_surfaceb
libcairomm-1.16.so.1:_ZN5Cairo16RecordingSurfaceD0Ev
libcairomm-1.16.so.1:_ZN5Cairo16RecordingSurfaceD1Ev
libcairomm-1.16.so.1:_ZN5Cairo16RecordingSurfaceD2Ev
libcairomm-1.16.so.1:_ZN5Cairo17read_func_wrapperEPvPhj
libcairomm-1.16.so.1:_ZN5Cairo18translation_matrixEdd
libcairomm-1.16.so.1:_ZN5Cairo18write_func_wrapperEPvPKhj
libcairomm-1.16.so.1:_ZN5Cairo25device_write_func_wrapperEPvPKhj
libcairomm-1.16.so.1:_ZN5Cairo4PathC1EP10cairo_pathb
libcairomm-1.16.so.1:_ZN5Cairo4PathC2EP10cairo_pathb
libcairomm-1.16.so.1:_ZN5Cairo4PathD0Ev
libcairomm-1.16.so.1:_ZN5Cairo4PathD1Ev
libcairomm-1.16.so.1:_ZN5Cairo4PathD2Ev
libcairomm-1.16.so.1:_ZN5Cairo6Device4LockC1ERKS1_
libcairomm-1.16.so.1:_ZN5Cairo6Device4LockC1ERKSt10shared_ptrIS0_E
libcairomm-1.16.so.1:_ZN5Cairo6Device4LockC2ERKS1_
libcairomm-1.16.so.1:_ZN5Cairo6Device4LockC2ERKSt10shared_ptrIS0_E
libcairomm-1.16.so.1:_ZN5Cairo6Device4LockD1Ev
libcairomm-1.16.so.1:_ZN5Cairo6Device4LockD2Ev
libcairomm-1.16.so.1:_ZN5Cairo6Device5flushEv
libcairomm-1.16.so.1:_ZN5Cairo6Device6finishEv
libcairomm-1.16.so.1:_ZN5Cairo6Device7acquireEv
libcairomm-1.16.so.1:_ZN5Cairo6Device7releaseEv
libcairomm-1.16.so.1:_ZN5Cairo6DeviceC1EP13_cairo_deviceb
libcairomm-1.16.so.1:_ZN5Cairo6DeviceC2EP13_cairo_deviceb
libcairomm-1.16.so.1:_ZN5Cairo6DeviceD0Ev
libcairomm-1.16.so.1:_ZN5Cairo6DeviceD1Ev
libcairomm-1.16.so.1:_ZN5Cairo6DeviceD2Ev
libcairomm-1.16.so.1:_ZN5Cairo6Matrix5scaleEdd
libcairomm-1.16.so.1:_ZN5Cairo6Matrix6invertEv
libcairomm-1.16.so.1:_ZN5Cairo6Matrix6rotateEd
libcairomm-1.16.so.1:_ZN5Cairo6Matrix8multiplyERS0_S1_
libcairomm-1.16.so.1:_ZN5Cairo6Matrix9translateEdd
libcairomm-1.16.so.1:_ZN5Cairo6MatrixC1Edddddd
libcairomm-1.16.so.1:_ZN5Cairo6MatrixC1Ev
libcairomm-1.16.so.1:_ZN5Cairo6MatrixC2Edddddd
libcairomm-1.16.so.1:_ZN5Cairo6MatrixC2Ev
libcairomm-1.16.so.1:_ZN5Cairo6Region6createEPK20_cairo_rectangle_inti
libcairomm-1.16.so.1:_ZN5Cairo6Region6createERK20_cairo_rectangle_int
libcairomm-1.16.so.1:_ZN5Cairo6Region6createERKSt6vectorI20_cairo_rectangle_intSaIS2_EE
libcairomm-1.16.so.1:_ZN5Cairo6Region6createEv
libcairomm-1.16.so.1:_ZN5Cairo6Region6do_xorERK20_cairo_rectangle_int
libcairomm-1.16.so.1:_ZN5Cairo6Region6do_xorERKSt10shared_ptrIS0_E
libcairomm-1.16.so.1:_ZN5Cairo6Region8do_unionERK20_cairo_rectangle_int
libcairomm-1.16.so.1:_ZN5Cairo6Region8do_unionERKSt10shared_ptrIS0_E
libcairomm-1.16.so.1:_ZN5Cairo6Region8subtractERK20_cairo_rectangle_int
libcairomm-1.16.so.1:_ZN5Cairo6Region8subtractERKSt10shared_ptrIS0_E
libcairomm-1.16.so.1:_ZN5Cairo6Region9intersectERK20_cairo_rectangle_int
libcairomm-1.16.so.1:_ZN5Cairo6Region9intersectERKSt10shared_ptrIS0_E
libcairomm-1.16.so.1:_ZN5Cairo6Region9translateEii
libcairomm-1.16.so.1:_ZN5Cairo6RegionC1EP13_cairo_regionb
libcairomm-1.16.so.1:_ZN5Cairo6RegionC1EPK20_cairo_rectangle_inti
libcairomm-1.16.so.1:_ZN5Cairo6RegionC1ERK20_cairo_rectangle_int
libcairomm-1.16.so.1:_ZN5Cairo6RegionC1ERKSt6vectorI20_cairo_rectangle_intSaIS2_EE
libcairomm-1.16.so.1:_ZN5Cairo6RegionC1Ev
libcairomm-1.16.so.1:_ZN5Cairo6RegionC2EP13_cairo_regionb
libcairomm-1.16.so.1:_ZN5Cairo6RegionC2EPK20_cairo_rectangle_inti
libcairomm-1.16.so.1:_ZN5Cairo6RegionC2ERK20_cairo_rectangle_int
libcairomm-1.16.so.1:_ZN5Cairo6RegionC2ERKSt6vectorI20_cairo_rectangle_intSaIS2_EE
libcairomm-1.16.so.1:_ZN5Cairo6RegionC2Ev
libcairomm-1.16.so.1:_ZN5Cairo6RegionD0Ev
libcairomm-1.16.so.1:_ZN5Cairo6RegionD1Ev
libcairomm-1.16.so.1:_ZN5Cairo6RegionD2Ev
libcairomm-1.16.so.1:_ZN5Cairo6Script13write_commentERKNSt7__cxx1112basic_stringIcSt11char_traitsIcESaIcEEE
libcairomm-1.16.so.1:_ZN5Cairo6Script17create_for_streamERKN4sigc4slotIF13_cairo_statusPKhjEJEEE
libcairomm-1.16.so.1:_ZN5Cairo6Script26add_from_recording_surfaceERKSt10shared_ptrINS_13ScriptSurfaceEE
libcairomm-1.16.so.1:_ZN5Cairo6Script6createERKNSt7__cxx1112basic_stringIcSt11char_traitsIcESaIcEEE
libcairomm-1.16.so.1:_ZN5Cairo6Script8set_modeENS_10ScriptModeE
libcairomm-1.16.so.1:_ZN5Cairo6ScriptC1EP13_cairo_deviceb
libcairomm-1.16.so.1:_ZN5Cairo6ScriptC2EP13_cairo_deviceb
libcairomm-1.16.so.1:_ZN5Cairo6ScriptD0Ev
libcairomm-1.16.so.1:_ZN5Cairo6ScriptD1Ev
libcairomm-1.16.so.1:_ZN5Cairo6ScriptD2Ev
libcairomm-1.16.so.1:_ZN5Cairo7Context10close_pathEv
libcairomm-1.16.so.1:_ZN5Cairo7Context10get_matrixERNS_6MatrixE
libcairomm-1.16.so.1:_ZN5Cairo7Context10get_sourceEv
libcairomm-1.16.so.1:_ZN5Cairo7Context10get_targetEv
libcairomm-1.16.so.1:_ZN5Cairo7Context10glyph_pathERKSt6vectorI13cairo_glyph_tSaIS2_EE
libcairomm-1.16.so.1:_ZN5Cairo7Context10push_groupEv
libcairomm-1.16.so.1:_ZN5Cairo7Context10reset_clipEv
libcairomm-1.16.so.1:_ZN5Cairo7Context10set_matrixERKNS_6MatrixE
libcairomm-1.16.so.1:_ZN5Cairo7Context10set_sourceERKSt10shared_ptrIKNS_7PatternEE
libcairomm-1.16.so.1:_ZN5Cairo7Context10set_sourceERKSt10shared_ptrINS_7SurfaceEEdd
libcairomm-1.16.so.1:_ZN5Cairo7Context10unset_dashEv
libcairomm-1.16.so.1:_ZN5Cairo7Context11append_pathERKNS_4PathE
libcairomm-1.16.so.1:_ZN5Cairo7Context11rel_line_toEdd
libcairomm-1.16.so.1:_ZN5Cairo7Context11rel_move_toEdd
libcairomm-1.16.so.1:_ZN5Cairo7Context11show_glyphsERKSt6vectorI13cairo_glyph_tSaIS2_EE
libcairomm-1.16.so.1:_ZN5Cairo7Context12arc_negativeEddddd
libcairomm-1.16.so.1:_ZN5Cairo7Context12rel_curve_toEdddddd
libcairomm-1.16.so.1:_ZN5Cairo7Context12set_line_capENS0_7LineCapE
libcairomm-1.16.so.1:_ZN5Cairo7Context12set_operatorENS0_8OperatorE
libcairomm-1.16.so.1:_ZN5Cairo7Context13clip_preserveEv
libcairomm-1.16.so.1:_ZN5Cairo7Context13fill_preserveEv
libcairomm-1.16.so.1:_ZN5Cairo7Context13get_font_faceEv
libcairomm-1.16.so.1:_ZN5Cairo7Context13set_antialiasENS_9AntialiasE
libcairomm-1.16.so.1:_ZN5Cairo7Context13set_fill_ruleENS0_8FillRuleE
libcairomm-1.16.so.1:_ZN5Cairo7Context13set_font_faceERKSt10shared_ptrIKNS_8FontFaceEE
libcairomm-1.16.so.1:_ZN5Cairo7Context13set_font_sizeEd
libcairomm-1.16.so.1:_ZN5Cairo7Context13set_line_joinENS0_8LineJoinE
libcairomm-1.16.so.1:_ZN5Cairo7Context13set_toleranceEd
libcairomm-1.16.so.1:_ZN5Cairo7Context14begin_new_pathEv
libcairomm-1.16.so.1:_ZN5Cairo7Context14rotate_degreesEd
libcairomm-1.16.so.1:_ZN5Cairo7Context14set_line_widthEd
libcairomm-1.16.so.1:_ZN5Cairo7Context14set_source_rgbEddd
libcairomm-1.16.so.1:_ZN5Cairo7Context15get_scaled_fontEv
libcairomm-1.16.so.1:_ZN5Cairo7Context15set_font_matrixERKNS_6MatrixE
libcairomm-1.16.so.1:_ZN5Cairo7Context15set_miter_limitEd
libcairomm-1.16.so.1:_ZN5Cairo7Context15set_scaled_fontERKSt10shared_ptrIKNS_10ScaledFontEE
libcairomm-1.16.so.1:_ZN5Cairo7Context15set_source_rgbaEdddd
libcairomm-1.16.so.1:_ZN5Cairo7Context15stroke_preserveEv
libcairomm-1.16.so.1:_ZN5Cairo7Context16get_group_targetEv
libcairomm-1.16.so.1:_ZN5Cairo7Context16paint_with_alphaEd
libcairomm-1.16.so.1:_ZN5Cairo7Context16select_font_faceERKNSt7__cxx1112basic_stringIcSt11char_traitsIcESaIcEEENS_11ToyFontFace5SlantENS9_6WeightE
libcairomm-1.16.so.1:_ZN5Cairo7Context16set_font_optionsERKNS_11FontOptionsE
libcairomm-1.16.so.1:_ZN5Cairo7Context16show_text_glyphsERKNSt7__cxx1112basic_stringIcSt11char_traitsIcESaIcEEERKSt6vectorI13cairo_glyph_tSaISA_EERKS9_I20cairo_text_cluster_tSaISF_EENS_16TextClusterFlagsE
libcairomm-1.16.so.1:_ZN5Cairo7Context18begin_new_sub_pathEv
libcairomm-1.16.so.1:_ZN5Cairo7Context19pop_group_to_sourceEv
libcairomm-1.16.so.1:_ZN5Cairo7Context19set_identity_matrixEv
libcairomm-1.16.so.1:_ZN5Cairo7Context22get_source_for_surfaceEv
libcairomm-1.16.so.1:_ZN5Cairo7Context23push_group_with_contentENS_7ContentE
libcairomm-1.16.so.1:_ZN5Cairo7Context3arcEddddd
libcairomm-1.16.so.1:_ZN5Cairo7Context4clipEv
libcairomm-1.16.so.1:_ZN5Cairo7Context4fillEv
libcairomm-1.16.so.1:_ZN5Cairo7Context4maskERKSt10shared_ptrIKNS_7PatternEE
libcairomm-1.16.so.1:_ZN5Cairo7Context4maskERKSt10shared_ptrIKNS_7SurfaceEEdd
libcairomm-1.16.so.1:_ZN5Cairo7Context4saveEv
libcairomm-1.16.so.1:_ZN5Cairo7Context5paintEv
libcairomm-1.16.so.1:_ZN5Cairo7Context5scaleEdd
libcairomm-1.16.so.1:_ZN5Cairo7Context6createERKSt10shared_ptrINS_7SurfaceEE
libcairomm-1.16.so.1:_ZN5Cairo7Context6rotateEd
libcairomm-1.16.so.1:_ZN5Cairo7Context6strokeEv
libcairomm-1.16.so.1:_ZN5Cairo7Context7line_toEdd
libcairomm-1.16.so.1:_ZN5Cairo7Context7move_toEdd
libcairomm-1.16.so.1:_ZN5Cairo7Context7restoreEv
libcairomm-1.16.so.1:_ZN5Cairo7Context8curve_toEdddddd
libcairomm-1.16.so.1:_ZN5Cairo7Context8set_dashERKSt6vectorIdSaIdEEd
libcairomm-1.16.so.1:_ZN5Cairo7Context8set_dashERKSt8valarrayIdEd
libcairomm-1.16.so.1:_ZN5Cairo7Context9copy_pageEv
libcairomm-1.16.so.1:_ZN5Cairo7Context9pop_groupEv
libcairomm-1.16.so.1:_ZN5Cairo7Context9rectangleEdddd
libcairomm-1.16.so.1:_ZN5Cairo7Context9show_pageEv
libcairomm-1.16.so.1:_ZN5Cairo7Context9show_textERKNSt7__cxx1112basic_stringIcSt11char_traitsIcESaIcEEE
libcairomm-1.16.so.1:_ZN5Cairo7Context9text_pathERKNSt7__cxx1112basic_stringIcSt11char_traitsIcESaIcEEE
libcairomm-1.16.so.1:_ZN5Cairo7Context9transformERKNS_6MatrixE
libcairomm-1.16.so.1:_ZN5Cairo7Context9translateEdd
libcairomm-1.16.so.1:_ZN5Cairo7ContextC1EP6_cairob
libcairomm-1.16.so.1:_ZN5Cairo7ContextC1ERKSt10shared_ptrINS_7SurfaceEE
libcairomm-1.16.so.1:_ZN5Cairo7ContextC2EP6_cairob
libcairomm-1.16.so.1:_ZN5Cairo7ContextC2ERKSt10shared_ptrINS_7SurfaceEE
libcairomm-1.16.so.1:_ZN5Cairo7ContextD0Ev
libcairomm-1.16.so.1:_ZN5Cairo7ContextD1Ev
libcairomm-1.16.so.1:_ZN5Cairo7ContextD2Ev
libcairomm-1.16.so.1:_ZN5Cairo7Pattern10set_extendENS0_6ExtendE
libcairomm-1.16.so.1:_ZN5Cairo7Pattern10set_matrixERKNS_6MatrixE
libcairomm-1.16.so.1:_ZN5Cairo7PatternC1EP14_cairo_patternb
libcairomm-1.16.so.1:_ZN5Cairo7PatternC1Ev
libcairomm-1.16.so.1:_ZN5Cairo7PatternC2EP14_cairo_patternb
libcairomm-1.16.so.1:_ZN5Cairo7PatternC2Ev
libcairomm-1.16.so.1:_ZN5Cairo7PatternD0Ev
libcairomm-1.16.so.1:_ZN5Cairo7PatternD1Ev
libcairomm-1.16.so.1:_ZN5Cairo7PatternD2Ev
libcairomm-1.16.so.1:_ZN5Cairo7Private17wrap_surface_xlibEP14_cairo_surface
libcairomm-1.16.so.1:_ZN5Cairo7Private18wrap_surface_win32EP14_cairo_surface
libcairomm-1.16.so.1:_ZN5Cairo7Private19wrap_surface_quartzEP14_cairo_surface
libcairomm-1.16.so.1:_ZN5Cairo7Surface10get_deviceEv
libcairomm-1.16.so.1:_ZN5Cairo7Surface10mark_dirtyEiiii
libcairomm-1.16.so.1:_ZN5Cairo7Surface10mark_dirtyEv
libcairomm-1.16.so.1:_ZN5Cairo7Surface12write_to_pngERKNSt7__cxx1112basic_stringIcSt11char_traitsIcESaIcEEE
libcairomm-1.16.so.1:_ZN5Cairo7Surface13get_mime_dataERKNSt7__cxx1112basic_stringIcSt11char_traitsIcESaIcEEERm
libcairomm-1.16.so.1:_ZN5Cairo7Surface13set_mime_dataERKNSt7__cxx1112basic_stringIcSt11char_traitsIcESaIcEEEPhmRKN4sigc4slotIFvvEJEEE
libcairomm-1.16.so.1:_ZN5Cairo7Surface15unset_mime_dataERKNSt7__cxx1112basic_stringIcSt11char_traitsIcESaIcEEE
libcairomm-1.16.so.1:_ZN5Cairo7Surface17set_device_offsetEdd
libcairomm-1.16.so.1:_ZN5Cairo7Surface19write_to_png_streamERKN4sigc4slotIF13_cairo_statusPKhjEJEEE
libcairomm-1.16.so.1:_ZN5Cairo7Surface23set_fallback_resolutionEdd
libcairomm-1.16.so.1:_ZN5Cairo7Surface5flushEv
libcairomm-1.16.so.1:_ZN5Cairo7Surface6createERKSt10shared_ptrIS0_Edddd
libcairomm-1.16.so.1:_ZN5Cairo7Surface6createESt10shared_ptrIS0_ENS_7ContentEii
libcairomm-1.16.so.1:_ZN5Cairo7Surface6finishEv
libcairomm-1.16.so.1:_ZN5Cairo7Surface9copy_pageEv
libcairomm-1.16.so.1:_ZN5Cairo7Surface9show_pageEv
libcairomm-1.16.so.1:_ZN5Cairo7SurfaceC1EP14_cairo_surfaceb
libcairomm-1.16.so.1:_ZN5Cairo7SurfaceC2EP14_cairo_surfaceb
libcairomm-1.16.so.1:_ZN5Cairo7SurfaceD0Ev
libcairomm-1.16.so.1:_ZN5Cairo7SurfaceD1Ev
libcairomm-1.16.so.1:_ZN5Cairo7SurfaceD2Ev
libcairomm-1.16.so.1:_ZN5Cairo8FontFaceC1EP16_cairo_font_faceb
libcairomm-1.16.so.1:_ZN5Cairo8FontFaceC2EP16_cairo_font_faceb
libcairomm-1.16.so.1:_ZN5Cairo8FontFaceD0Ev
libcairomm-1.16.so.1:_ZN5Cairo8FontFaceD1Ev
libcairomm-1.16.so.1:_ZN5Cairo8FontFaceD2Ev
libcairomm-1.16.so.1:_ZN5Cairo8Gradient18add_color_stop_rgbEdddd
libcairomm-1.16.so.1:_ZN5Cairo8Gradient19add_color_stop_rgbaEddddd
libcairomm-1.16.so.1:_ZN5Cairo8GradientC1EP14_cairo_patternb
libcairomm-1.16.so.1:_ZN5Cairo8GradientC1Ev
libcairomm-1.16.so.1:_ZN5Cairo8GradientC2EP14_cairo_patternb
libcairomm-1.16.so.1:_ZN5Cairo8GradientC2Ev
libcairomm-1.16.so.1:_ZN5Cairo8GradientD0Ev
libcairomm-1.16.so.1:_ZN5Cairo8GradientD1Ev
libcairomm-1.16.so.1:_ZN5Cairo8GradientD2Ev
libcairomm-1.16.so.1:_ZN5Cairo9PsSurface10get_levelsEv
libcairomm-1.16.so.1:_ZN5Cairo9PsSurface11dsc_commentENSt7__cxx1112basic_stringIcSt11char_traitsIcESaIcEEE
libcairomm-1.16.so.1:_ZN5Cairo9PsSurface15dsc_begin_setupEv
libcairomm-1.16.so.1:_ZN5Cairo9PsSurface15level_to_stringB5cxx11ENS_7PsLevelE
libcairomm-1.16.so.1:_ZN5Cairo9PsSurface17create_for_streamERKN4sigc4slotIF13_cairo_statusPKhjEJEEEdd
libcairomm-1.16.so.1:_ZN5Cairo9PsSurface17restrict_to_levelENS_7PsLevelE
libcairomm-1.16.so.1:_ZN5Cairo9PsSurface20dsc_begin_page_setupEv
libcairomm-1.16.so.1:_ZN5Cairo9PsSurface6createENSt7__cxx1112basic_stringIcSt11char_traitsIcESaIcEEEdd
libcairomm-1.16.so.1:_ZN5Cairo9PsSurface7set_epsEb
libcairomm-1.16.so.1:_ZN5Cairo9PsSurface8set_sizeEdd
libcairomm-1.16.so.1:_ZN5Cairo9PsSurfaceC1EP14_cairo_surfaceb
libcairomm-1.16.so.1:_ZN5Cairo9PsSurfaceC2EP14_cairo_surfaceb
libcairomm-1.16.so.1:_ZN5Cairo9PsSurfaceD0Ev
libcairomm-1.16.so.1:_ZN5Cairo9PsSurfaceD1Ev
libcairomm-1.16.so.1:_ZN5Cairo9PsSurfaceD2Ev
libcairomm-1.16.so.1:_ZN5CairomlERKNS_6MatrixES2_
libcairomm-1.16.so.1:_ZN9__gnu_cxx15__concat_size_tEPcmm
libcairomm-1.16.so.1:_ZN9__gnu_cxx15__snprintf_liteEPcmPKcP13__va_list_tag
libcairomm-1.16.so.1:_ZN9__gnu_cxx20recursive_init_errorC1Ev
libcairomm-1.16.so.1:_ZN9__gnu_cxx20recursive_init_errorC2Ev
libcairomm-1.16.so.1:_ZN9__gnu_cxx20recursive_init_errorD0Ev
libcairomm-1.16.so.1:_ZN9__gnu_cxx20recursive_init_errorD1Ev
libcairomm-1.16.so.1:_ZN9__gnu_cxx20recursive_init_errorD2Ev
libcairomm-1.16.so.1:_ZN9__gnu_cxx26__throw_insufficient_spaceEPKcS1_
libcairomm-1.16.so.1:_ZN9__gnu_cxx27__verbose_terminate_handlerEv
libcairomm-1.16.so.1:_ZN9__gnu_cxx9__freeresEv
libcairomm-1.16.so.1:_ZNK10__cxxabiv117__class_type_info10__do_catchEPKSt9type_infoPPvj
libcairomm-1.16.so.1:_ZNK10__cxxabiv117__class_type_info11__do_upcastEPKS0_PKvRNS0_15__upcast_resultE
libcairomm-1.16.so.1:_ZNK10__cxxabiv117__class_type_info11__do_upcastEPKS0_PPv
libcairomm-1.16.so.1:_ZNK10__cxxabiv117__class_type_info12__do_dyncastElNS0_10__sub_kindEPKS0_PKvS3_S5_RNS0_16__dyncast_resultE
libcairomm-1.16.so.1:_ZNK10__cxxabiv117__class_type_info20__do_find_public_srcElPKvPKS0_S2_
libcairomm-1.16.so.1:_ZNK10__cxxabiv120__si_class_type_info11__do_upcastEPKNS_17__class_type_infoEPKvRNS1_15__upcast_resultE
libcairomm-1.16.so.1:_ZNK10__cxxabiv120__si_class_type_info12__do_dyncastElNS_17__class_type_info10__sub_kindEPKS1_PKvS4_S6_RNS1_16__dyncast_resultE
libcairomm-1.16.so.1:_ZNK10__cxxabiv120__si_class_type_info20__do_find_public_srcElPKvPKNS_17__class_type_infoES2_
libcairomm-1.16.so.1:_ZNK10__cxxabiv121__vmi_class_type_info11__do_upcastEPKNS_17__class_type_infoEPKvRNS1_15__upcast_resultE
libcairomm-1.16.so.1:_ZNK10__cxxabiv121__vmi_class_type_info12__do_dyncastElNS_17__class_type_info10__sub_kindEPKS1_PKvS4_S6_RNS1_16__dyncast_resultE
libcairomm-1.16.so.1:_ZNK10__cxxabiv121__vmi_class_type_info20__do_find_public_srcElPKvPKNS_17__class_type_infoES2_
libcairomm-1.16.so.1:_ZNK5Cairo10FtFontFace14get_synthesizeEv
libcairomm-1.16.so.1:_ZNK5Cairo10ScaledFont11get_extentsER20cairo_font_extents_t
libcairomm-1.16.so.1:_ZNK5Cairo10ScaledFont13get_font_faceEv
libcairomm-1.16.so.1:_ZNK5Cairo10ScaledFont15get_font_matrixERNS_6MatrixE
libcairomm-1.16.so.1:_ZNK5Cairo10ScaledFont16get_font_optionsERNS_11FontOptionsE
libcairomm-1.16.so.1:_ZNK5Cairo10ScaledFont16get_scale_matrixERNS_6MatrixE
libcairomm-1.16.so.1:_ZNK5Cairo10ScaledFont7get_ctmERNS_6MatrixE
libcairomm-1.16.so.1:_ZNK5Cairo10ScaledFont8get_typeEv
libcairomm-1.16.so.1:_ZNK5Cairo11FontOptions13get_antialiasEv
libcairomm-1.16.so.1:_ZNK5Cairo11FontOptions14get_hint_styleEv
libcairomm-1.16.so.1:_ZNK5Cairo11FontOptions16get_hint_metricsEv
libcairomm-1.16.so.1:_ZNK5Cairo11FontOptions18get_subpixel_orderEv
libcairomm-1.16.so.1:_ZNK5Cairo11FontOptions4hashEv
libcairomm-1.16.so.1:_ZNK5Cairo11FontOptionseqERKS0_
libcairomm-1.16.so.1:_ZNK5Cairo11ToyFontFace10get_familyB5cxx11Ev
libcairomm-1.16.so.1:_ZNK5Cairo11ToyFontFace10get_weightEv
libcairomm-1.16.so.1:_ZNK5Cairo11ToyFontFace9get_slantEv
libcairomm-1.16.so.1:_ZNK5Cairo11XlibSurface10get_heightEv
libcairomm-1.16.so.1:_ZNK5Cairo11XlibSurface10get_screenEv
libcairomm-1.16.so.1:_ZNK5Cairo11XlibSurface10get_visualEv
libcairomm-1.16.so.1:_ZNK5Cairo11XlibSurface11get_displayEv
libcairomm-1.16.so.1:_ZNK5Cairo11XlibSurface12get_drawableEv
libcairomm-1.16.so.1:_ZNK5Cairo11XlibSurface18get_xrender_formatEv
libcairomm-1.16.so.1:_ZNK5Cairo11XlibSurface9get_depthEv
libcairomm-1.16.so.1:_ZNK5Cairo11XlibSurface9get_widthEv
libcairomm-1.16.so.1:_ZNK5Cairo11logic_error15get_status_codeEv
libcairomm-1.16.so.1:_ZNK5Cairo12ImageSurface10get_formatEv
libcairomm-1.16.so.1:_ZNK5Cairo12ImageSurface10get_heightEv
libcairomm-1.16.so.1:_ZNK5Cairo12ImageSurface10get_strideEv
libcairomm-1.16.so.1:_ZNK5Cairo12ImageSurface8get_dataEv
libcairomm-1.16.so.1:_ZNK5Cairo12ImageSurface9get_widthEv
libcairomm-1.16.so.1:_ZNK5Cairo12SolidPattern8get_rgbaERdS1_S1_S1_
libcairomm-1.16.so.1:_ZNK5Cairo14LinearGradient17get_linear_pointsERdS1_S1_S1_
libcairomm-1.16.so.1:_ZNK5Cairo14RadialGradient18get_radial_circlesERdS1_S1_S1_S1_S1_
libcairomm-1.16.so.1:_ZNK5Cairo14SurfacePattern10get_filterEv
libcairomm-1.16.so.1:_ZNK5Cairo14SurfacePattern11get_surfaceEv
libcairomm-1.16.so.1:_ZNK5Cairo16RecordingSurface11get_extentsER16_cairo_rectangle
libcairomm-1.16.so.1:_ZNK5Cairo16RecordingSurface11ink_extentsEv
libcairomm-1.16.so.1:_ZNK5Cairo6Device11unreferenceEv
libcairomm-1.16.so.1:_ZNK5Cairo6Device8get_typeEv
libcairomm-1.16.so.1:_ZNK5Cairo6Device9referenceEv
libcairomm-1.16.so.1:_ZNK5Cairo6Matrix15transform_pointERdS1_
libcairomm-1.16.so.1:_ZNK5Cairo6Matrix18transform_distanceERdS1_
libcairomm-1.16.so.1:_ZNK5Cairo6Region11get_extentsEv
libcairomm-1.16.so.1:_ZNK5Cairo6Region11unreferenceEv
libcairomm-1.16.so.1:_ZNK5Cairo6Region13get_rectangleEi
libcairomm-1.16.so.1:_ZNK5Cairo6Region14contains_pointEii
libcairomm-1.16.so.1:_ZNK5Cairo6Region18contains_rectangleERK20_cairo_rectangle_int
libcairomm-1.16.so.1:_ZNK5Cairo6Region18get_num_rectanglesEv
libcairomm-1.16.so.1:_ZNK5Cairo6Region4copyEv
libcairomm-1.16.so.1:_ZNK5Cairo6Region5emptyEv
libcairomm-1.16.so.1:_ZNK5Cairo6Region9referenceEv
libcairomm-1.16.so.1:_ZNK5Cairo6Script8get_modeEv
libcairomm-1.16.so.1:_ZNK5Cairo7Context10get_matrixEv
libcairomm-1.16.so.1:_ZNK5Cairo7Context10get_sourceEv
libcairomm-1.16.so.1:_ZNK5Cairo7Context10get_targetEv
libcairomm-1.16.so.1:_ZNK5Cairo7Context11unreferenceEv
libcairomm-1.16.so.1:_ZNK5Cairo7Context12get_line_capEv
libcairomm-1.16.so.1:_ZNK5Cairo7Context12get_operatorEv
libcairomm-1.16.so.1:_ZNK5Cairo7Context13get_antialiasEv
libcairomm-1.16.so.1:_ZNK5Cairo7Context13get_fill_ruleEv
libcairomm-1.16.so.1:_ZNK5Cairo7Context13get_font_faceEv
libcairomm-1.16.so.1:_ZNK5Cairo7Context13get_line_joinEv
libcairomm-1.16.so.1:_ZNK5Cairo7Context13get_toleranceEv
libcairomm-1.16.so.1:_ZNK5Cairo7Context14copy_path_flatEv
libcairomm-1.16.so.1:_ZNK5Cairo7Context14device_to_userERdS1_
libcairomm-1.16.so.1:_ZNK5Cairo7Context14get_line_widthEv
libcairomm-1.16.so.1:_ZNK5Cairo7Context14user_to_deviceERdS1_
libcairomm-1.16.so.1:_ZNK5Cairo7Context15get_font_matrixERNS_6MatrixE
libcairomm-1.16.so.1:_ZNK5Cairo7Context15get_miter_limitEv
libcairomm-1.16.so.1:_ZNK5Cairo7Context16get_clip_extentsERdS1_S1_S1_
libcairomm-1.16.so.1:_ZNK5Cairo7Context16get_fill_extentsERdS1_S1_S1_
libcairomm-1.16.so.1:_ZNK5Cairo7Context16get_font_extentsER20cairo_font_extents_t
libcairomm-1.16.so.1:_ZNK5Cairo7Context16get_font_optionsERNS_11FontOptionsE
libcairomm-1.16.so.1:_ZNK5Cairo7Context16get_group_targetEv
libcairomm-1.16.so.1:_ZNK5Cairo7Context16get_path_extentsERdS1_S1_S1_
libcairomm-1.16.so.1:_ZNK5Cairo7Context16get_text_extentsERKNSt7__cxx1112basic_stringIcSt11char_traitsIcESaIcEEER20cairo_text_extents_t
libcairomm-1.16.so.1:_ZNK5Cairo7Context17get_current_pointERdS1_
libcairomm-1.16.so.1:_ZNK5Cairo7Context17get_glyph_extentsERKSt6vectorI13cairo_glyph_tSaIS2_EER20cairo_text_extents_t
libcairomm-1.16.so.1:_ZNK5Cairo7Context17has_current_pointEv
libcairomm-1.16.so.1:_ZNK5Cairo7Context18get_stroke_extentsERdS1_S1_S1_
libcairomm-1.16.so.1:_ZNK5Cairo7Context22get_source_for_surfaceEv
libcairomm-1.16.so.1:_ZNK5Cairo7Context23device_to_user_distanceERdS1_
libcairomm-1.16.so.1:_ZNK5Cairo7Context23user_to_device_distanceERdS1_
libcairomm-1.16.so.1:_ZNK5Cairo7Context24copy_clip_rectangle_listERSt6vectorI16_cairo_rectangleSaIS2_EE
libcairomm-1.16.so.1:_ZNK5Cairo7Context7in_clipEdd
libcairomm-1.16.so.1:_ZNK5Cairo7Context7in_fillEdd
libcairomm-1.16.so.1:_ZNK5Cairo7Context8get_dashERSt6vectorIdSaIdEERd
libcairomm-1.16.so.1:_ZNK5Cairo7Context9copy_pathEv
libcairomm-1.16.so.1:_ZNK5Cairo7Context9in_strokeEdd
libcairomm-1.16.so.1:_ZNK5Cairo7Context9referenceEv
libcairomm-1.16.so.1:_ZNK5Cairo7Pattern10get_extendEv
libcairomm-1.16.so.1:_ZNK5Cairo7Pattern10get_matrixERNS_6MatrixE
libcairomm-1.16.so.1:_ZNK5Cairo7Pattern10get_matrixEv
libcairomm-1.16.so.1:_ZNK5Cairo7Pattern11unreferenceEv
libcairomm-1.16.so.1:_ZNK5Cairo7Pattern8get_typeEv
libcairomm-1.16.so.1:_ZNK5Cairo7Pattern9referenceEv
libcairomm-1.16.so.1:_ZNK5Cairo7Surface11get_contentEv
libcairomm-1.16.so.1:_ZNK5Cairo7Surface11unreferenceEv
libcairomm-1.16.so.1:_ZNK5Cairo7Surface16get_font_optionsERNS_11FontOptionsE
libcairomm-1.16.so.1:_ZNK5Cairo7Surface17get_device_offsetERdS1_
libcairomm-1.16.so.1:_ZNK5Cairo7Surface20has_show_text_glyphsEv
libcairomm-1.16.so.1:_ZNK5Cairo7Surface23get_fallback_resolutionERdS1_
libcairomm-1.16.so.1:_ZNK5Cairo7Surface8get_typeEv
libcairomm-1.16.so.1:_ZNK5Cairo7Surface9referenceEv
libcairomm-1.16.so.1:_ZNK5Cairo8FontFace11unreferenceEv
libcairomm-1.16.so.1:_ZNK5Cairo8FontFace8get_typeEv
libcairomm-1.16.so.1:_ZNK5Cairo8FontFace9referenceEv
libcairomm-1.16.so.1:_ZNK5Cairo8Gradient15get_color_stopsEv
libcairomm-1.16.so.1:_ZNK5Cairo9PsSurface7get_epsEv
libcairomm-1.16.so.1:_ZNKSt10bad_typeid4whatEv
libcairomm-1.16.so.1:_ZNKSt10error_code23default_error_conditionEv
libcairomm-1.16.so.1:_ZNKSt11__timepunctIcE6_M_putEPcmPKcPK2tm
libcairomm-1.16.so.1:_ZNKSt11__timepunctIwE6_M_putEPwmPKwPK2tm
libcairomm-1.16.so.1:_ZNKSt11logic_error4whatEv
libcairomm-1.16.so.1:_ZNKSt12__basic_fileIcE7is_openEv
libcairomm-1.16.so.1:_ZNKSt13bad_exception4whatEv
libcairomm-1.16.so.1:_ZNKSt13random_device13_M_getentropyEv
libcairomm-1.16.so.1:_ZNKSt13runtime_error4whatEv
libcairomm-1.16.so.1:_ZNKSt19__codecvt_utf8_baseIDiE10do_unshiftER11__mbstate_tPcS3_RS3_
libcairomm-1.16.so.1:_ZNKSt19__codecvt_utf8_baseIDiE11do_encodingEv
libcairomm-1.16.so.1:_ZNKSt19__codecvt_utf8_baseIDiE13do_max_lengthEv
libcairomm-1.16.so.1:_ZNKSt19__codecvt_utf8_baseIDiE16do_always_noconvEv
libcairomm-1.16.so.1:_ZNKSt19__codecvt_utf8_baseIDiE5do_inER11__mbstate_tPKcS4_RS4_PDiS6_RS6_
libcairomm-1.16.so.1:_ZNKSt19__codecvt_utf8_baseIDiE6do_outER11__mbstate_tPKDiS4_RS4_PcS6_RS6_
libcairomm-1.16.so.1:_ZNKSt19__codecvt_utf8_baseIDiE9do_lengthER11__mbstate_tPKcS4_m
libcairomm-1.16.so.1:_ZNKSt19__codecvt_utf8_baseIDsE10do_unshiftER11__mbstate_tPcS3_RS3_
libcairomm-1.16.so.1:_ZNKSt19__codecvt_utf8_baseIDsE11do_encodingEv
libcairomm-1.16.so.1:_ZNKSt19__codecvt_utf8_baseIDsE13do_max_lengthEv
libcairomm-1.16.so.1:_ZNKSt19__codecvt_utf8_baseIDsE16do_always_noconvEv
libcairomm-1.16.so.1:_ZNKSt19__codecvt_utf8_baseIDsE5do_inER11__mbstate_tPKcS4_RS4_PDsS6_RS6_
libcairomm-1.16.so.1:_ZNKSt19__codecvt_utf8_baseIDsE6do_outER11__mbstate_tPKDsS4_RS4_PcS6_RS6_
libcairomm-1.16.so.1:_ZNKSt19__codecvt_utf8_baseIDsE9do_lengthER11__mbstate_tPKcS4_m
libcairomm-1.16.so.1:_ZNKSt19__codecvt_utf8_baseIwE10do_unshiftER11__mbstate_tPcS3_RS3_
libcairomm-1.16.so.1:_ZNKSt19__codecvt_utf8_baseIwE11do_encodingEv
libcairomm-1.16.so.1:_ZNKSt19__codecvt_utf8_baseIwE13do_max_lengthEv
libcairomm-1.16.so.1:_ZNKSt19__codecvt_utf8_baseIwE16do_always_noconvEv
libcairomm-1.16.so.1:_ZNKSt19__codecvt_utf8_baseIwE5do_inER11__mbstate_tPKcS4_RS4_PwS6_RS6_
libcairomm-1.16.so.1:_ZNKSt19__codecvt_utf8_baseIwE6do_outER11__mbstate_tPKwS4_RS4_PcS6_RS6_
libcairomm-1.16.so.1:_ZNKSt19__codecvt_utf8_baseIwE9do_lengthER11__mbstate_tPKcS4_m
libcairomm-1.16.so.1:_ZNKSt19__iosfail_type_info11__do_upcastEPKN10__cxxabiv117__class_type_infoEPPv
libcairomm-1.16.so.1:_ZNKSt20__codecvt_utf16_baseIDiE10do_unshiftER11__mbstate_tPcS3_RS3_
libcairomm-1.16.so.1:_ZNKSt20__codecvt_utf16_baseIDiE11do_encodingEv
libcairomm-1.16.so.1:_ZNKSt20__codecvt_utf16_baseIDiE13do_max_lengthEv
libcairomm-1.16.so.1:_ZNKSt20__codecvt_utf16_baseIDiE16do_always_noconvEv
libcairomm-1.16.so.1:_ZNKSt20__codecvt_utf16_baseIDiE5do_inER11__mbstate_tPKcS4_RS4_PDiS6_RS6_
libcairomm-1.16.so.1:_ZNKSt20__codecvt_utf16_baseIDiE6do_outER11__mbstate_tPKDiS4_RS4_PcS6_RS6_
libcairomm-1.16.so.1:_ZNKSt20__codecvt_utf16_baseIDiE9do_lengthER11__mbstate_tPKcS4_m
libcairomm-1.16.so.1:_ZNKSt20__codecvt_utf16_baseIDsE10do_unshiftER11__mbstate_tPcS3_RS3_
libcairomm-1.16.so.1:_ZNKSt20__codecvt_utf16_baseIDsE11do_encodingEv
libcairomm-1.16.so.1:_ZNKSt20__codecvt_utf16_baseIDsE13do_max_lengthEv
libcairomm-1.16.so.1:_ZNKSt20__codecvt_utf16_baseIDsE16do_always_noconvEv
libcairomm-1.16.so.1:_ZNKSt20__codecvt_utf16_baseIDsE5do_inER11__mbstate_tPKcS4_RS4_PDsS6_RS6_
libcairomm-1.16.so.1:_ZNKSt20__codecvt_utf16_baseIDsE6do_outER11__mbstate_tPKDsS4_RS4_PcS6_RS6_
libcairomm-1.16.so.1:_ZNKSt20__codecvt_utf16_baseIDsE9do_lengthER11__mbstate_tPKcS4_m
libcairomm-1.16.so.1:_ZNKSt20__codecvt_utf16_baseIwE10do_unshiftER11__mbstate_tPcS3_RS3_
libcairomm-1.16.so.1:_ZNKSt20__codecvt_utf16_baseIwE11do_encodingEv
libcairomm-1.16.so.1:_ZNKSt20__codecvt_utf16_baseIwE13do_max_lengthEv
libcairomm-1.16.so.1:_ZNKSt20__codecvt_utf16_baseIwE16do_always_noconvEv
libcairomm-1.16.so.1:_ZNKSt20__codecvt_utf16_baseIwE5do_inER11__mbstate_tPKcS4_RS4_PwS6_RS6_
libcairomm-1.16.so.1:_ZNKSt20__codecvt_utf16_baseIwE6do_outER11__mbstate_tPKwS4_RS4_PcS6_RS6_
libcairomm-1.16.so.1:_ZNKSt20__codecvt_utf16_baseIwE9do_lengthER11__mbstate_tPKcS4_m
libcairomm-1.16.so.1:_ZNKSt20bad_array_new_length4whatEv
libcairomm-1.16.so.1:_ZNKSt25__codecvt_utf8_utf16_baseIDiE10do_unshiftER11__mbstate_tPcS3_RS3_
libcairomm-1.16.so.1:_ZNKSt25__codecvt_utf8_utf16_baseIDiE11do_encodingEv
libcairomm-1.16.so.1:_ZNKSt25__codecvt_utf8_utf16_baseIDiE13do_max_lengthEv
libcairomm-1.16.so.1:_ZNKSt25__codecvt_utf8_utf16_baseIDiE16do_always_noconvEv
libcairomm-1.16.so.1:_ZNKSt25__codecvt_utf8_utf16_baseIDiE5do_inER11__mbstate_tPKcS4_RS4_PDiS6_RS6_
libcairomm-1.16.so.1:_ZNKSt25__codecvt_utf8_utf16_baseIDiE6do_outER11__mbstate_tPKDiS4_RS4_PcS6_RS6_
libcairomm-1.16.so.1:_ZNKSt25__codecvt_utf8_utf16_baseIDiE9do_lengthER11__mbstate_tPKcS4_m
libcairomm-1.16.so.1:_ZNKSt25__codecvt_utf8_utf16_baseIDsE10do_unshiftER11__mbstate_tPcS3_RS3_
libcairomm-1.16.so.1:_ZNKSt25__codecvt_utf8_utf16_baseIDsE11do_encodingEv
libcairomm-1.16.so.1:_ZNKSt25__codecvt_utf8_utf16_baseIDsE13do_max_lengthEv
libcairomm-1.16.so.1:_ZNKSt25__codecvt_utf8_utf16_baseIDsE16do_always_noconvEv
libcairomm-1.16.so.1:_ZNKSt25__codecvt_utf8_utf16_baseIDsE5do_inER11__mbstate_tPKcS4_RS4_PDsS6_RS6_
libcairomm-1.16.so.1:_ZNKSt25__codecvt_utf8_utf16_baseIDsE6do_outER11__mbstate_tPKDsS4_RS4_PcS6_RS6_
libcairomm-1.16.so.1:_ZNKSt25__codecvt_utf8_utf16_baseIDsE9do_lengthER11__mbstate_tPKcS4_m
libcairomm-1.16.so.1:_ZNKSt25__codecvt_utf8_utf16_baseIwE10do_unshiftER11__mbstate_tPcS3_RS3_
libcairomm-1.16.so.1:_ZNKSt25__codecvt_utf8_utf16_baseIwE11do_encodingEv
libcairomm-1.16.so.1:_ZNKSt25__codecvt_utf8_utf16_baseIwE13do_max_lengthEv
libcairomm-1.16.so.1:_ZNKSt25__codecvt_utf8_utf16_baseIwE16do_always_noconvEv
libcairomm-1.16.so.1:_ZNKSt25__codecvt_utf8_utf16_baseIwE5do_inER11__mbstate_tPKcS4_RS4_PwS6_RS6_
libcairomm-1.16.so.1:_ZNKSt25__codecvt_utf8_utf16_baseIwE6do_outER11__mbstate_tPKwS4_RS4_PcS6_RS6_
libcairomm-1.16.so.1:_ZNKSt25__codecvt_utf8_utf16_baseIwE9do_lengthER11__mbstate_tPKcS4_m
libcairomm-1.16.so.1:_ZNKSt3_V214error_category10_M_messageB5cxx11Ei
libcairomm-1.16.so.1:_ZNKSt3_V214error_category10_M_messageEi
libcairomm-1.16.so.1:_ZNKSt3_V214error_category10equivalentERKSt10error_codei
libcairomm-1.16.so.1:_ZNKSt3_V214error_category10equivalentEiRKSt15error_condition
libcairomm-1.16.so.1:_ZNKSt3_V214error_category23default_error_conditionEi
libcairomm-1.16.so.1:_ZNKSt5ctypeIcE10do_tolowerEPcPKc
libcairomm-1.16.so.1:_ZNKSt5ctypeIcE10do_tolowerEc
libcairomm-1.16.so.1:_ZNKSt5ctypeIcE10do_toupperEPcPKc
libcairomm-1.16.so.1:_ZNKSt5ctypeIcE10do_toupperEc
libcairomm-1.16.so.1:_ZNKSt5ctypeIcE13_M_widen_initEv
libcairomm-1.16.so.1:_ZNKSt5ctypeIcE14_M_narrow_initEv
libcairomm-1.16.so.1:_ZNKSt5ctypeIwE10do_scan_isEtPKwS2_
libcairomm-1.16.so.1:_ZNKSt5ctypeIwE10do_tolowerEPwPKw
libcairomm-1.16.so.1:_ZNKSt5ctypeIwE10do_tolowerEw
libcairomm-1.16.so.1:_ZNKSt5ctypeIwE10do_toupperEPwPKw
libcairomm-1.16.so.1:_ZNKSt5ctypeIwE10do_toupperEw
libcairomm-1.16.so.1:_ZNKSt5ctypeIwE11do_scan_notEtPKwS2_
libcairomm-1.16.so.1:_ZNKSt5ctypeIwE19_M_convert_to_wmaskEt
libcairomm-1.16.so.1:_ZNKSt5ctypeIwE5do_isEPKwS2_Pt
libcairomm-1.16.so.1:_ZNKSt5ctypeIwE5do_isEtw
libcairomm-1.16.so.1:_ZNKSt5ctypeIwE8do_widenEPKcS2_Pw
libcairomm-1.16.so.1:_ZNKSt5ctypeIwE8do_widenEc
libcairomm-1.16.so.1:_ZNKSt5ctypeIwE9do_narrowEPKwS2_cPc
libcairomm-1.16.so.1:_ZNKSt5ctypeIwE9do_narrowEwc
libcairomm-1.16.so.1:_ZNKSt6locale2id5_M_idEv
libcairomm-1.16.so.1:_ZNKSt6locale4nameB5cxx11Ev
libcairomm-1.16.so.1:_ZNKSt6locale4nameEv
libcairomm-1.16.so.1:_ZNKSt6locale5facet11_M_cow_shimEPKNS_2idE
libcairomm-1.16.so.1:_ZNKSt6locale5facet11_M_sso_shimEPKNS_2idE
libcairomm-1.16.so.1:_ZNKSt6localeeqERKS_
libcairomm-1.16.so.1:_ZNKSt7__cxx117collateIcE10_M_compareEPKcS3_
libcairomm-1.16.so.1:_ZNKSt7__cxx117collateIcE12_M_transformEPcPKcm
libcairomm-1.16.so.1:_ZNKSt7__cxx117collateIwE10_M_compareEPKwS3_
libcairomm-1.16.so.1:_ZNKSt7__cxx117collateIwE12_M_transformEPwPKwm
libcairomm-1.16.so.1:_ZNKSt7__cxx118messagesIcE6do_getEiiiRKNS_12basic_stringIcSt11char_traitsIcESaIcEEE
libcairomm-1.16.so.1:_ZNKSt7__cxx118messagesIcE7do_openERKNS_12basic_stringIcSt11char_traitsIcESaIcEEERKSt6locale
libcairomm-1.16.so.1:_ZNKSt7__cxx118messagesIcE8do_closeEi
libcairomm-1.16.so.1:_ZNKSt7__cxx118messagesIwE6do_getEiiiRKNS_12basic_stringIwSt11char_traitsIwESaIwEEE
libcairomm-1.16.so.1:_ZNKSt7__cxx118messagesIwE7do_openERKNS_12basic_stringIcSt11char_traitsIcESaIcEEERKSt6locale
libcairomm-1.16.so.1:_ZNKSt7__cxx118messagesIwE8do_closeEi
libcairomm-1.16.so.1:_ZNKSt7codecvtIDiDu11__mbstate_tE10do_unshiftERS0_PDuS3_RS3_
libcairomm-1.16.so.1:_ZNKSt7codecvtIDiDu11__mbstate_tE11do_encodingEv
libcairomm-1.16.so.1:_ZNKSt7codecvtIDiDu11__mbstate_tE13do_max_lengthEv
libcairomm-1.16.so.1:_ZNKSt7codecvtIDiDu11__mbstate_tE16do_always_noconvEv
libcairomm-1.16.so.1:_ZNKSt7codecvtIDiDu11__mbstate_tE5do_inERS0_PKDuS4_RS4_PDiS6_RS6_
libcairomm-1.16.so.1:_ZNKSt7codecvtIDiDu11__mbstate_tE6do_outERS0_PKDiS4_RS4_PDuS6_RS6_
libcairomm-1.16.so.1:_ZNKSt7codecvtIDiDu11__mbstate_tE9do_lengthERS0_PKDuS4_m
libcairomm-1.16.so.1:_ZNKSt7codecvtIDic11__mbstate_tE10do_unshiftERS0_PcS3_RS3_
libcairomm-1.16.so.1:_ZNKSt7codecvtIDic11__mbstate_tE11do_encodingEv
libcairomm-1.16.so.1:_ZNKSt7codecvtIDic11__mbstate_tE13do_max_lengthEv
libcairomm-1.16.so.1:_ZNKSt7codecvtIDic11__mbstate_tE16do_always_noconvEv
libcairomm-1.16.so.1:_ZNKSt7codecvtIDic11__mbstate_tE5do_inERS0_PKcS4_RS4_PDiS6_RS6_
libcairomm-1.16.so.1:_ZNKSt7codecvtIDic11__mbstate_tE6do_outERS0_PKDiS4_RS4_PcS6_RS6_
libcairomm-1.16.so.1:_ZNKSt7codecvtIDic11__mbstate_tE9do_lengthERS0_PKcS4_m
libcairomm-1.16.so.1:_ZNKSt7codecvtIDsDu11__mbstate_tE10do_unshiftERS0_PDuS3_RS3_
libcairomm-1.16.so.1:_ZNKSt7codecvtIDsDu11__mbstate_tE11do_encodingEv
libcairomm-1.16.so.1:_ZNKSt7codecvtIDsDu11__mbstate_tE13do_max_lengthEv
libcairomm-1.16.so.1:_ZNKSt7codecvtIDsDu11__mbstate_tE16do_always_noconvEv
libcairomm-1.16.so.1:_ZNKSt7codecvtIDsDu11__mbstate_tE5do_inERS0_PKDuS4_RS4_PDsS6_RS6_
libcairomm-1.16.so.1:_ZNKSt7codecvtIDsDu11__mbstate_tE6do_outERS0_PKDsS4_RS4_PDuS6_RS6_
libcairomm-1.16.so.1:_ZNKSt7codecvtIDsDu11__mbstate_tE9do_lengthERS0_PKDuS4_m
libcairomm-1.16.so.1:_ZNKSt7codecvtIDsc11__mbstate_tE10do_unshiftERS0_PcS3_RS3_
libcairomm-1.16.so.1:_ZNKSt7codecvtIDsc11__mbstate_tE11do_encodingEv
libcairomm-1.16.so.1:_ZNKSt7codecvtIDsc11__mbstate_tE13do_max_lengthEv
libcairomm-1.16.so.1:_ZNKSt7codecvtIDsc11__mbstate_tE16do_always_noconvEv
libcairomm-1.16.so.1:_ZNKSt7codecvtIDsc11__mbstate_tE5do_inERS0_PKcS4_RS4_PDsS6_RS6_
libcairomm-1.16.so.1:_ZNKSt7codecvtIDsc11__mbstate_tE6do_outERS0_PKDsS4_RS4_PcS6_RS6_
libcairomm-1.16.so.1:_ZNKSt7codecvtIDsc11__mbstate_tE9do_lengthERS0_PKcS4_m
libcairomm-1.16.so.1:_ZNKSt7codecvtIcc11__mbstate_tE10do_unshiftERS0_PcS3_RS3_
libcairomm-1.16.so.1:_ZNKSt7codecvtIcc11__mbstate_tE11do_encodingEv
libcairomm-1.16.so.1:_ZNKSt7codecvtIcc11__mbstate_tE13do_max_lengthEv
libcairomm-1.16.so.1:_ZNKSt7codecvtIcc11__mbstate_tE16do_always_noconvEv
libcairomm-1.16.so.1:_ZNKSt7codecvtIcc11__mbstate_tE5do_inERS0_PKcS4_RS4_PcS6_RS6_
libcairomm-1.16.so.1:_ZNKSt7codecvtIcc11__mbstate_tE6do_outERS0_PKcS4_RS4_PcS6_RS6_
libcairomm-1.16.so.1:_ZNKSt7codecvtIcc11__mbstate_tE9do_lengthERS0_PKcS4_m
libcairomm-1.16.so.1:_ZNKSt7codecvtIwc11__mbstate_tE10do_unshiftERS0_PcS3_RS3_
libcairomm-1.16.so.1:_ZNKSt7codecvtIwc11__mbstate_tE11do_encodingEv
libcairomm-1.16.so.1:_ZNKSt7codecvtIwc11__mbstate_tE13do_max_lengthEv
libcairomm-1.16.so.1:_ZNKSt7codecvtIwc11__mbstate_tE16do_always_noconvEv
libcairomm-1.16.so.1:_ZNKSt7codecvtIwc11__mbstate_tE5do_inERS0_PKcS4_RS4_PwS6_RS6_
libcairomm-1.16.so.1:_ZNKSt7codecvtIwc11__mbstate_tE6do_outERS0_PKwS4_RS4_PcS6_RS6_
libcairomm-1.16.so.1:_ZNKSt7codecvtIwc11__mbstate_tE9do_lengthERS0_PKcS4_m
libcairomm-1.16.so.1:_ZNKSt7collateIcE10_M_compareEPKcS2_
libcairomm-1.16.so.1:_ZNKSt7collateIcE12_M_transformEPcPKcm
libcairomm-1.16.so.1:_ZNKSt7collateIwE10_M_compareEPKwS2_
libcairomm-1.16.so.1:_ZNKSt7collateIwE12_M_transformEPwPKwm
libcairomm-1.16.so.1:_ZNKSt8Catalogs6_M_getEi
libcairomm-1.16.so.1:_ZNKSt8bad_cast4whatEv
libcairomm-1.16.so.1:_ZNKSt8ios_base7failure4whatEv
libcairomm-1.16.so.1:_ZNKSt8ios_base7failureB5cxx114whatEv
libcairomm-1.16.so.1:_ZNKSt8messagesIcE6do_getEiiiRKSs
libcairomm-1.16.so.1:_ZNKSt8messagesIcE7do_openERKSsRKSt6locale
libcairomm-1.16.so.1:_ZNKSt8messagesIcE8do_closeEi
libcairomm-1.16.so.1:_ZNKSt8messagesIwE6do_getEiiiRKSbIwSt11char_traitsIwESaIwEE
libcairomm-1.16.so.1:_ZNKSt8messagesIwE7do_openERKSsRKSt6locale
libcairomm-1.16.so.1:_ZNKSt8messagesIwE8do_closeEi
libcairomm-1.16.so.1:_ZNKSt9bad_alloc4whatEv
libcairomm-1.16.so.1:_ZNKSt9exception4whatEv
libcairomm-1.16.so.1:_ZNKSt9type_info10__do_catchEPKS_PPvj
libcairomm-1.16.so.1:_ZNKSt9type_info11__do_upcastEPKN10__cxxabiv117__class_type_infoEPPv
libcairomm-1.16.so.1:_ZNKSt9type_info14__is_pointer_pEv
libcairomm-1.16.so.1:_ZNKSt9type_info15__is_function_pEv
libcairomm-1.16.so.1:_ZNSi6ignoreEl
libcairomm-1.16.so.1:_ZNSi6ignoreEli
libcairomm-1.16.so.1:_ZNSi7getlineEPclc
libcairomm-1.16.so.1:_ZNSt10__num_base15_S_format_floatERKSt8ios_basePcc
libcairomm-1.16.so.1:_ZNSt10bad_typeidD0Ev
libcairomm-1.16.so.1:_ZNSt10bad_typeidD1Ev
libcairomm-1.16.so.1:_ZNSt10bad_typeidD2Ev
libcairomm-1.16.so.1:_ZNSt10money_base20_S_construct_patternEccc
libcairomm-1.16.so.1:_ZNSt10moneypunctIcLb0EE24_M_initialize_moneypunctEP15__locale_structPKc
libcairomm-1.16.so.1:_ZNSt10moneypunctIcLb0EED0Ev
libcairomm-1.16.so.1:_ZNSt10moneypunctIcLb0EED1Ev
libcairomm-1.16.so.1:_ZNSt10moneypunctIcLb0EED2Ev
libcairomm-1.16.so.1:_ZNSt10moneypunctIcLb1EE24_M_initialize_moneypunctEP15__locale_structPKc
libcairomm-1.16.so.1:_ZNSt10moneypunctIcLb1EED0Ev
libcairomm-1.16.so.1:_ZNSt10moneypunctIcLb1EED1Ev
libcairomm-1.16.so.1:_ZNSt10moneypunctIcLb1EED2Ev
libcairomm-1.16.so.1:_ZNSt10moneypunctIwLb0EE24_M_initialize_moneypunctEP15__locale_structPKc
libcairomm-1.16.so.1:_ZNSt10moneypunctIwLb0EED0Ev
libcairomm-1.16.so.1:_ZNSt10moneypunctIwLb0EED1Ev
libcairomm-1.16.so.1:_ZNSt10moneypunctIwLb0EED2Ev
libcairomm-1.16.so.1:_ZNSt10moneypunctIwLb1EE24_M_initialize_moneypunctEP15__locale_structPKc
libcairomm-1.16.so.1:_ZNSt10moneypunctIwLb1EED0Ev
libcairomm-1.16.so.1:_ZNSt10moneypunctIwLb1EED1Ev
libcairomm-1.16.so.1:_ZNSt10moneypunctIwLb1EED2Ev
libcairomm-1.16.so.1:_ZNSt11__timepunctIcE23_M_initialize_timepunctEP15__locale_struct
libcairomm-1.16.so.1:_ZNSt11__timepunctIwE23_M_initialize_timepunctEP15__locale_struct
libcairomm-1.16.so.1:_ZNSt11logic_errorC1EOS_
libcairomm-1.16.so.1:_ZNSt11logic_errorC1EPKc
libcairomm-1.16.so.1:_ZNSt11logic_errorC1ERKNSt7__cxx1112basic_stringIcSt11char_traitsIcESaIcEEE
libcairomm-1.16.so.1:_ZNSt11logic_errorC1ERKS_
libcairomm-1.16.so.1:_ZNSt11logic_errorC1ERKSs
libcairomm-1.16.so.1:_ZNSt11logic_errorC2EOS_
libcairomm-1.16.so.1:_ZNSt11logic_errorC2EPKc
libcairomm-1.16.so.1:_ZNSt11logic_errorC2ERKNSt7__cxx1112basic_stringIcSt11char_traitsIcESaIcEEE
libcairomm-1.16.so.1:_ZNSt11logic_errorC2ERKS_
libcairomm-1.16.so.1:_ZNSt11logic_errorC2ERKSs
libcairomm-1.16.so.1:_ZNSt11logic_errorD0Ev
libcairomm-1.16.so.1:_ZNSt11logic_errorD1Ev
libcairomm-1.16.so.1:_ZNSt11logic_errorD2Ev
libcairomm-1.16.so.1:_ZNSt11logic_erroraSEOS_
libcairomm-1.16.so.1:_ZNSt11logic_erroraSERKS_
libcairomm-1.16.so.1:_ZNSt11range_errorC1EPKc
libcairomm-1.16.so.1:_ZNSt11range_errorC1ERKNSt7__cxx1112basic_stringIcSt11char_traitsIcESaIcEEE
libcairomm-1.16.so.1:_ZNSt11range_errorC1ERKSs
libcairomm-1.16.so.1:_ZNSt11range_errorC2EPKc
libcairomm-1.16.so.1:_ZNSt11range_errorC2ERKNSt7__cxx1112basic_stringIcSt11char_traitsIcESaIcEEE
libcairomm-1.16.so.1:_ZNSt11range_errorC2ERKSs
libcairomm-1.16.so.1:_ZNSt11range_errorD0Ev
libcairomm-1.16.so.1:_ZNSt11range_errorD1Ev
libcairomm-1.16.so.1:_ZNSt11range_errorD2Ev
libcairomm-1.16.so.1:_ZNSt12__basic_fileIcE2fdEv
libcairomm-1.16.so.1:_ZNSt12__basic_fileIcE4fileEv
libcairomm-1.16.so.1:_ZNSt12__basic_fileIcE4openEPKcSt13_Ios_Openmodei
libcairomm-1.16.so.1:_ZNSt12__basic_fileIcE4syncEv
libcairomm-1.16.so.1:_ZNSt12__basic_fileIcE5closeEv
libcairomm-1.16.so.1:_ZNSt12__basic_fileIcE6xsgetnEPcl
libcairomm-1.16.so.1:_ZNSt12__basic_fileIcE6xsputnEPKcl
libcairomm-1.16.so.1:_ZNSt12__basic_fileIcE7seekoffElSt12_Ios_Seekdir
libcairomm-1.16.so.1:_ZNSt12__basic_fileIcE8sys_openEP8_IO_FILESt13_Ios_Openmode
libcairomm-1.16.so.1:_ZNSt12__basic_fileIcE8sys_openEiSt13_Ios_Openmode
libcairomm-1.16.so.1:_ZNSt12__basic_fileIcE8xsputn_2EPKclS2_l
libcairomm-1.16.so.1:_ZNSt12__basic_fileIcE9showmanycEv
libcairomm-1.16.so.1:_ZNSt12__basic_fileIcEC1EP15pthread_mutex_t
libcairomm-1.16.so.1:_ZNSt12__basic_fileIcEC2EP15pthread_mutex_t
libcairomm-1.16.so.1:_ZNSt12__basic_fileIcED1Ev
libcairomm-1.16.so.1:_ZNSt12__basic_fileIcED2Ev
libcairomm-1.16.so.1:_ZNSt12__cow_stringC1EOS_
libcairomm-1.16.so.1:_ZNSt12__cow_stringC1EPKcm
libcairomm-1.16.so.1:_ZNSt12__cow_stringC1ERKNSt7__cxx1112basic_stringIcSt11char_traitsIcESaIcEEE
libcairomm-1.16.so.1:_ZNSt12__cow_stringC1ERKS_
libcairomm-1.16.so.1:_ZNSt12__cow_stringC1ERKSs
libcairomm-1.16.so.1:_ZNSt12__cow_stringC1Ev
libcairomm-1.16.so.1:_ZNSt12__cow_stringC2EOS_
libcairomm-1.16.so.1:_ZNSt12__cow_stringC2EPKcm
libcairomm-1.16.so.1:_ZNSt12__cow_stringC2ERKNSt7__cxx1112basic_stringIcSt11char_traitsIcESaIcEEE
libcairomm-1.16.so.1:_ZNSt12__cow_stringC2ERKS_
libcairomm-1.16.so.1:_ZNSt12__cow_stringC2ERKSs
libcairomm-1.16.so.1:_ZNSt12__cow_stringC2Ev
libcairomm-1.16.so.1:_ZNSt12__cow_stringD1Ev
libcairomm-1.16.so.1:_ZNSt12__cow_stringD2Ev
libcairomm-1.16.so.1:_ZNSt12__cow_stringaSEOS_
libcairomm-1.16.so.1:_ZNSt12__cow_stringaSERKS_
libcairomm-1.16.so.1:_ZNSt12__sso_stringC1EOS_
libcairomm-1.16.so.1:_ZNSt12__sso_stringC1EPKcm
libcairomm-1.16.so.1:_ZNSt12__sso_stringC1ERKNSt7__cxx1112basic_stringIcSt11char_traitsIcESaIcEEE
libcairomm-1.16.so.1:_ZNSt12__sso_stringC1ERKS_
libcairomm-1.16.so.1:_ZNSt12__sso_stringC1ERKSs
libcairomm-1.16.so.1:_ZNSt12__sso_stringC1Ev
libcairomm-1.16.so.1:_ZNSt12__sso_stringC2EOS_
libcairomm-1.16.so.1:_ZNSt12__sso_stringC2EPKcm
libcairomm-1.16.so.1:_ZNSt12__sso_stringC2ERKNSt7__cxx1112basic_stringIcSt11char_traitsIcESaIcEEE
libcairomm-1.16.so.1:_ZNSt12__sso_stringC2ERKS_
libcairomm-1.16.so.1:_ZNSt12__sso_stringC2ERKSs
libcairomm-1.16.so.1:_ZNSt12__sso_stringC2Ev
libcairomm-1.16.so.1:_ZNSt12__sso_stringD1Ev
libcairomm-1.16.so.1:_ZNSt12__sso_stringD2Ev
libcairomm-1.16.so.1:_ZNSt12__sso_stringaSEOS_
libcairomm-1.16.so.1:_ZNSt12__sso_stringaSERKS_
libcairomm-1.16.so.1:_ZNSt12ctype_bynameIcEC1EPKcm
libcairomm-1.16.so.1:_ZNSt12ctype_bynameIcEC1ERKNSt7__cxx1112basic_stringIcSt11char_traitsIcESaIcEEEm
libcairomm-1.16.so.1:_ZNSt12ctype_bynameIcEC1ERKSsm
libcairomm-1.16.so.1:_ZNSt12ctype_bynameIcEC2EPKcm
libcairomm-1.16.so.1:_ZNSt12ctype_bynameIcEC2ERKNSt7__cxx1112basic_stringIcSt11char_traitsIcESaIcEEEm
libcairomm-1.16.so.1:_ZNSt12ctype_bynameIcEC2ERKSsm
libcairomm-1.16.so.1:_ZNSt12ctype_bynameIcED0Ev
libcairomm-1.16.so.1:_ZNSt12ctype_bynameIcED1Ev
libcairomm-1.16.so.1:_ZNSt12ctype_bynameIcED2Ev
libcairomm-1.16.so.1:_ZNSt12ctype_bynameIwEC1EPKcm
libcairomm-1.16.so.1:_ZNSt12ctype_bynameIwEC1ERKNSt7__cxx1112basic_stringIcSt11char_traitsIcESaIcEEEm
libcairomm-1.16.so.1:_ZNSt12ctype_bynameIwEC1ERKSsm
libcairomm-1.16.so.1:_ZNSt12ctype_bynameIwEC2EPKcm
libcairomm-1.16.so.1:_ZNSt12ctype_bynameIwEC2ERKNSt7__cxx1112basic_stringIcSt11char_traitsIcESaIcEEEm
libcairomm-1.16.so.1:_ZNSt12ctype_bynameIwEC2ERKSsm
libcairomm-1.16.so.1:_ZNSt12ctype_bynameIwED0Ev
libcairomm-1.16.so.1:_ZNSt12ctype_bynameIwED1Ev
libcairomm-1.16.so.1:_ZNSt12ctype_bynameIwED2Ev
libcairomm-1.16.so.1:_ZNSt12domain_errorC1EPKc
libcairomm-1.16.so.1:_ZNSt12domain_errorC1ERKNSt7__cxx1112basic_stringIcSt11char_traitsIcESaIcEEE
libcairomm-1.16.so.1:_ZNSt12domain_errorC1ERKSs
libcairomm-1.16.so.1:_ZNSt12domain_errorC2EPKc
libcairomm-1.16.so.1:_ZNSt12domain_errorC2ERKNSt7__cxx1112basic_stringIcSt11char_traitsIcESaIcEEE
libcairomm-1.16.so.1:_ZNSt12domain_errorC2ERKSs
libcairomm-1.16.so.1:_ZNSt12domain_errorD0Ev
libcairomm-1.16.so.1:_ZNSt12domain_errorD1Ev
libcairomm-1.16.so.1:_ZNSt12domain_errorD2Ev
libcairomm-1.16.so.1:_ZNSt12length_errorC1EPKc
libcairomm-1.16.so.1:_ZNSt12length_errorC1ERKNSt7__cxx1112basic_stringIcSt11char_traitsIcESaIcEEE
libcairomm-1.16.so.1:_ZNSt12length_errorC1ERKSs
libcairomm-1.16.so.1:_ZNSt12length_errorC2EPKc
libcairomm-1.16.so.1:_ZNSt12length_errorC2ERKNSt7__cxx1112basic_stringIcSt11char_traitsIcESaIcEEE
libcairomm-1.16.so.1:_ZNSt12length_errorC2ERKSs
libcairomm-1.16.so.1:_ZNSt12length_errorD0Ev
libcairomm-1.16.so.1:_ZNSt12length_errorD1Ev
libcairomm-1.16.so.1:_ZNSt12length_errorD2Ev
libcairomm-1.16.so.1:_ZNSt12out_of_rangeC1EPKc
libcairomm-1.16.so.1:_ZNSt12out_of_rangeC1ERKNSt7__cxx1112basic_stringIcSt11char_traitsIcESaIcEEE
libcairomm-1.16.so.1:_ZNSt12out_of_rangeC1ERKSs
libcairomm-1.16.so.1:_ZNSt12out_of_rangeC2EPKc
libcairomm-1.16.so.1:_ZNSt12out_of_rangeC2ERKNSt7__cxx1112basic_stringIcSt11char_traitsIcESaIcEEE
libcairomm-1.16.so.1:_ZNSt12out_of_rangeC2ERKSs
libcairomm-1.16.so.1:_ZNSt12out_of_rangeD0Ev
libcairomm-1.16.so.1:_ZNSt12out_of_rangeD1Ev
libcairomm-1.16.so.1:_ZNSt12out_of_rangeD2Ev
libcairomm-1.16.so.1:_ZNSt12system_errorD0Ev
libcairomm-1.16.so.1:_ZNSt12system_errorD1Ev
libcairomm-1.16.so.1:_ZNSt12system_errorD2Ev
libcairomm-1.16.so.1:_ZNSt13bad_exceptionD0Ev
libcairomm-1.16.so.1:_ZNSt13bad_exceptionD1Ev
libcairomm-1.16.so.1:_ZNSt13bad_exceptionD2Ev
libcairomm-1.16.so.1:_ZNSt13basic_istreamIwSt11char_traitsIwEE6ignoreEl
libcairomm-1.16.so.1:_ZNSt13basic_istreamIwSt11char_traitsIwEE6ignoreElj
libcairomm-1.16.so.1:_ZNSt13basic_istreamIwSt11char_traitsIwEE7getlineEPwlw
libcairomm-1.16.so.1:_ZNSt13random_device14_M_init_pretr1ERKNSt7__cxx1112basic_stringIcSt11char_traitsIcESaIcEEE
libcairomm-1.16.so.1:_ZNSt13random_device14_M_init_pretr1ERKSs
libcairomm-1.16.so.1:_ZNSt13random_device16_M_getval_pretr1Ev
libcairomm-1.16.so.1:_ZNSt13random_device7_M_finiEv
libcairomm-1.16.so.1:_ZNSt13random_device7_M_initEPKcm
libcairomm-1.16.so.1:_ZNSt13random_device7_M_initERKNSt7__cxx1112basic_stringIcSt11char_traitsIcESaIcEEE
libcairomm-1.16.so.1:_ZNSt13random_device7_M_initERKSs
libcairomm-1.16.so.1:_ZNSt13random_device9_M_getvalEv
libcairomm-1.16.so.1:_ZNSt13runtime_errorC1EOS_
libcairomm-1.16.so.1:_ZNSt13runtime_errorC1EPKc
libcairomm-1.16.so.1:_ZNSt13runtime_errorC1ERKNSt7__cxx1112basic_stringIcSt11char_traitsIcESaIcEEE
libcairomm-1.16.so.1:_ZNSt13runtime_errorC1ERKS_
libcairomm-1.16.so.1:_ZNSt13runtime_errorC1ERKSs
libcairomm-1.16.so.1:_ZNSt13runtime_errorC2EOS_
libcairomm-1.16.so.1:_ZNSt13runtime_errorC2EPKc
libcairomm-1.16.so.1:_ZNSt13runtime_errorC2ERKNSt7__cxx1112basic_stringIcSt11char_traitsIcESaIcEEE
libcairomm-1.16.so.1:_ZNSt13runtime_errorC2ERKS_
libcairomm-1.16.so.1:_ZNSt13runtime_errorC2ERKSs
libcairomm-1.16.so.1:_ZNSt13runtime_errorD0Ev
libcairomm-1.16.so.1:_ZNSt13runtime_errorD1Ev
libcairomm-1.16.so.1:_ZNSt13runtime_errorD2Ev
libcairomm-1.16.so.1:_ZNSt13runtime_erroraSEOS_
libcairomm-1.16.so.1:_ZNSt13runtime_erroraSERKS_
libcairomm-1.16.so.1:_ZNSt14overflow_errorC1EPKc
libcairomm-1.16.so.1:_ZNSt14overflow_errorC1ERKNSt7__cxx1112basic_stringIcSt11char_traitsIcESaIcEEE
libcairomm-1.16.so.1:_ZNSt14overflow_errorC1ERKSs
libcairomm-1.16.so.1:_ZNSt14overflow_errorC2EPKc
libcairomm-1.16.so.1:_ZNSt14overflow_errorC2ERKNSt7__cxx1112basic_stringIcSt11char_traitsIcESaIcEEE
libcairomm-1.16.so.1:_ZNSt14overflow_errorC2ERKSs
libcairomm-1.16.so.1:_ZNSt14overflow_errorD0Ev
libcairomm-1.16.so.1:_ZNSt14overflow_errorD1Ev
libcairomm-1.16.so.1:_ZNSt14overflow_errorD2Ev
libcairomm-1.16.so.1:_ZNSt15underflow_errorC1EPKc
libcairomm-1.16.so.1:_ZNSt15underflow_errorC1ERKNSt7__cxx1112basic_stringIcSt11char_traitsIcESaIcEEE
libcairomm-1.16.so.1:_ZNSt15underflow_errorC1ERKSs
libcairomm-1.16.so.1:_ZNSt15underflow_errorC2EPKc
libcairomm-1.16.so.1:_ZNSt15underflow_errorC2ERKNSt7__cxx1112basic_stringIcSt11char_traitsIcESaIcEEE
libcairomm-1.16.so.1:_ZNSt15underflow_errorC2ERKSs
libcairomm-1.16.so.1:_ZNSt15underflow_errorD0Ev
libcairomm-1.16.so.1:_ZNSt15underflow_errorD1Ev
libcairomm-1.16.so.1:_ZNSt15underflow_errorD2Ev
libcairomm-1.16.so.1:_ZNSt16invalid_argumentC1EPKc
libcairomm-1.16.so.1:_ZNSt16invalid_argumentC1ERKNSt7__cxx1112basic_stringIcSt11char_traitsIcESaIcEEE
libcairomm-1.16.so.1:_ZNSt16invalid_argumentC1ERKSs
libcairomm-1.16.so.1:_ZNSt16invalid_argumentC2EPKc
libcairomm-1.16.so.1:_ZNSt16invalid_argumentC2ERKNSt7__cxx1112basic_stringIcSt11char_traitsIcESaIcEEE
libcairomm-1.16.so.1:_ZNSt16invalid_argumentC2ERKSs
libcairomm-1.16.so.1:_ZNSt16invalid_argumentD0Ev
libcairomm-1.16.so.1:_ZNSt16invalid_argumentD1Ev
libcairomm-1.16.so.1:_ZNSt16invalid_argumentD2Ev
libcairomm-1.16.so.1:_ZNSt19__codecvt_utf8_baseIDiED0Ev
libcairomm-1.16.so.1:_ZNSt19__codecvt_utf8_baseIDiED1Ev
libcairomm-1.16.so.1:_ZNSt19__codecvt_utf8_baseIDiED2Ev
libcairomm-1.16.so.1:_ZNSt19__codecvt_utf8_baseIDsED0Ev
libcairomm-1.16.so.1:_ZNSt19__codecvt_utf8_baseIDsED1Ev
libcairomm-1.16.so.1:_ZNSt19__codecvt_utf8_baseIDsED2Ev
libcairomm-1.16.so.1:_ZNSt19__codecvt_utf8_baseIwED0Ev
libcairomm-1.16.so.1:_ZNSt19__codecvt_utf8_baseIwED1Ev
libcairomm-1.16.so.1:_ZNSt19__codecvt_utf8_baseIwED2Ev
libcairomm-1.16.so.1:_ZNSt19__iosfail_type_infoD0Ev
libcairomm-1.16.so.1:_ZNSt19__iosfail_type_infoD1Ev
libcairomm-1.16.so.1:_ZNSt19__iosfail_type_infoD2Ev
libcairomm-1.16.so.1:_ZNSt20__codecvt_utf16_baseIDiED0Ev
libcairomm-1.16.so.1:_ZNSt20__codecvt_utf16_baseIDiED1Ev
libcairomm-1.16.so.1:_ZNSt20__codecvt_utf16_baseIDiED2Ev
libcairomm-1.16.so.1:_ZNSt20__codecvt_utf16_baseIDsED0Ev
libcairomm-1.16.so.1:_ZNSt20__codecvt_utf16_baseIDsED1Ev
libcairomm-1.16.so.1:_ZNSt20__codecvt_utf16_baseIDsED2Ev
libcairomm-1.16.so.1:_ZNSt20__codecvt_utf16_baseIwED0Ev
libcairomm-1.16.so.1:_ZNSt20__codecvt_utf16_baseIwED1Ev
libcairomm-1.16.so.1:_ZNSt20__codecvt_utf16_baseIwED2Ev
libcairomm-1.16.so.1:_ZNSt20bad_array_new_lengthD0Ev
libcairomm-1.16.so.1:_ZNSt20bad_array_new_lengthD1Ev
libcairomm-1.16.so.1:_ZNSt20bad_array_new_lengthD2Ev
libcairomm-1.16.so.1:_ZNSt25__codecvt_utf8_utf16_baseIDiED0Ev
libcairomm-1.16.so.1:_ZNSt25__codecvt_utf8_utf16_baseIDiED1Ev
libcairomm-1.16.so.1:_ZNSt25__codecvt_utf8_utf16_baseIDiED2Ev
libcairomm-1.16.so.1:_ZNSt25__codecvt_utf8_utf16_baseIDsED0Ev
libcairomm-1.16.so.1:_ZNSt25__codecvt_utf8_utf16_baseIDsED1Ev
libcairomm-1.16.so.1:_ZNSt25__codecvt_utf8_utf16_baseIDsED2Ev
libcairomm-1.16.so.1:_ZNSt25__codecvt_utf8_utf16_baseIwED0Ev
libcairomm-1.16.so.1:_ZNSt25__codecvt_utf8_utf16_baseIwED1Ev
libcairomm-1.16.so.1:_ZNSt25__codecvt_utf8_utf16_baseIwED2Ev
libcairomm-1.16.so.1:_ZNSt3_V214error_categoryD0Ev
libcairomm-1.16.so.1:_ZNSt3_V214error_categoryD1Ev
libcairomm-1.16.so.1:_ZNSt3_V214error_categoryD2Ev
libcairomm-1.16.so.1:_ZNSt3_V215system_categoryEv
libcairomm-1.16.so.1:_ZNSt3_V216generic_categoryEv
libcairomm-1.16.so.1:_ZNSt5ctypeIcE13classic_tableEv
libcairomm-1.16.so.1:_ZNSt5ctypeIcEC1EP15__locale_structPKtbm
libcairomm-1.16.so.1:_ZNSt5ctypeIcEC1EPKtbm
libcairomm-1.16.so.1:_ZNSt5ctypeIcEC2EP15__locale_structPKtbm
libcairomm-1.16.so.1:_ZNSt5ctypeIcEC2EPKtbm
libcairomm-1.16.so.1:_ZNSt5ctypeIcED0Ev
libcairomm-1.16.so.1:_ZNSt5ctypeIcED1Ev
libcairomm-1.16.so.1:_ZNSt5ctypeIcED2Ev
libcairomm-1.16.so.1:_ZNSt5ctypeIwE19_M_initialize_ctypeEv
libcairomm-1.16.so.1:_ZNSt5ctypeIwEC1EP15__locale_structm
libcairomm-1.16.so.1:_ZNSt5ctypeIwEC1Em
libcairomm-1.16.so.1:_ZNSt5ctypeIwEC2EP15__locale_structm
libcairomm-1.16.so.1:_ZNSt5ctypeIwEC2Em
libcairomm-1.16.so.1:_ZNSt5ctypeIwED0Ev
libcairomm-1.16.so.1:_ZNSt5ctypeIwED1Ev
libcairomm-1.16.so.1:_ZNSt5ctypeIwED2Ev
libcairomm-1.16.so.1:_ZNSt6locale13_S_initializeEv
libcairomm-1.16.so.1:_ZNSt6locale18_S_initialize_onceEv
libcairomm-1.16.so.1:_ZNSt6locale21_S_normalize_categoryEi
libcairomm-1.16.so.1:_ZNSt6locale5_Impl13_M_init_extraEPPNS_5facetE
libcairomm-1.16.so.1:_ZNSt6locale5_Impl13_M_init_extraEPvS1_PKcS3_
libcairomm-1.16.so.1:_ZNSt6locale5_Impl16_M_install_cacheEPKNS_5facetEm
libcairomm-1.16.so.1:_ZNSt6locale5_Impl16_M_install_facetEPKNS_2idEPKNS_5facetE
libcairomm-1.16.so.1:_ZNSt6locale5_Impl16_M_replace_facetEPKS0_PKNS_2idE
libcairomm-1.16.so.1:_ZNSt6locale5_Impl19_M_replace_categoryEPKS0_PKPKNS_2idE
libcairomm-1.16.so.1:_ZNSt6locale5_ImplC1ERKS0_m
libcairomm-1.16.so.1:_ZNSt6locale5_ImplC1Em
libcairomm-1.16.so.1:_ZNSt6locale5_ImplC2ERKS0_m
libcairomm-1.16.so.1:_ZNSt6locale5_ImplC2Em
libcairomm-1.16.so.1:_ZNSt6locale5_ImplD1Ev
libcairomm-1.16.so.1:_ZNSt6locale5_ImplD2Ev
libcairomm-1.16.so.1:_ZNSt6locale5facet13_S_get_c_nameEv
libcairomm-1.16.so.1:_ZNSt6locale5facet15_S_get_c_localeEv
libcairomm-1.16.so.1:_ZNSt6locale5facet17_S_clone_c_localeERP15__locale_struct
libcairomm-1.16.so.1:_ZNSt6locale5facet18_S_create_c_localeERP15__locale_structPKcS2_
libcairomm-1.16.so.1:_ZNSt6locale5facet18_S_initialize_onceEv
libcairomm-1.16.so.1:_ZNSt6locale5facet19_S_destroy_c_localeERP15__locale_struct
libcairomm-1.16.so.1:_ZNSt6locale5facet20_S_lc_ctype_c_localeEP15__locale_structPKc
libcairomm-1.16.so.1:_ZNSt6locale5facetD0Ev
libcairomm-1.16.so.1:_ZNSt6locale5facetD1Ev
libcairomm-1.16.so.1:_ZNSt6locale5facetD2Ev
libcairomm-1.16.so.1:_ZNSt6locale6globalERKS_
libcairomm-1.16.so.1:_ZNSt6locale7classicEv
libcairomm-1.16.so.1:_ZNSt6localeC1EPNS_5_ImplE
libcairomm-1.16.so.1:_ZNSt6localeC1ERKS_
libcairomm-1.16.so.1:_ZNSt6localeC1Ev
libcairomm-1.16.so.1:_ZNSt6localeC2EPNS_5_ImplE
libcairomm-1.16.so.1:_ZNSt6localeC2ERKS_
libcairomm-1.16.so.1:_ZNSt6localeC2Ev
libcairomm-1.16.so.1:_ZNSt6localeD1Ev
libcairomm-1.16.so.1:_ZNSt6localeD2Ev
libcairomm-1.16.so.1:_ZNSt6localeaSERKS_
libcairomm-1.16.so.1:_ZNSt7__cxx1110moneypunctIcLb0EE24_M_initialize_moneypunctEP15__locale_structPKc
libcairomm-1.16.so.1:_ZNSt7__cxx1110moneypunctIcLb0EED0Ev
libcairomm-1.16.so.1:_ZNSt7__cxx1110moneypunctIcLb0EED1Ev
libcairomm-1.16.so.1:_ZNSt7__cxx1110moneypunctIcLb0EED2Ev
libcairomm-1.16.so.1:_ZNSt7__cxx1110moneypunctIcLb1EE24_M_initialize_moneypunctEP15__locale_structPKc
libcairomm-1.16.so.1:_ZNSt7__cxx1110moneypunctIcLb1EED0Ev
libcairomm-1.16.so.1:_ZNSt7__cxx1110moneypunctIcLb1EED1Ev
libcairomm-1.16.so.1:_ZNSt7__cxx1110moneypunctIcLb1EED2Ev
libcairomm-1.16.so.1:_ZNSt7__cxx1110moneypunctIwLb0EE24_M_initialize_moneypunctEP15__locale_structPKc
libcairomm-1.16.so.1:_ZNSt7__cxx1110moneypunctIwLb0EED0Ev
libcairomm-1.16.so.1:_ZNSt7__cxx1110moneypunctIwLb0EED1Ev
libcairomm-1.16.so.1:_ZNSt7__cxx1110moneypunctIwLb0EED2Ev
libcairomm-1.16.so.1:_ZNSt7__cxx1110moneypunctIwLb1EE24_M_initialize_moneypunctEP15__locale_structPKc
libcairomm-1.16.so.1:_ZNSt7__cxx1110moneypunctIwLb1EED0Ev
libcairomm-1.16.so.1:_ZNSt7__cxx1110moneypunctIwLb1EED1Ev
libcairomm-1.16.so.1:_ZNSt7__cxx1110moneypunctIwLb1EED2Ev
libcairomm-1.16.so.1:_ZNSt7__cxx1112basic_stringIcSt11char_traitsIcESaIcEE12_M_constructIPKcEEvT_S8_St20forward_iterator_tag
libcairomm-1.16.so.1:_ZNSt7__cxx118numpunctIcE22_M_initialize_numpunctEP15__locale_struct
libcairomm-1.16.so.1:_ZNSt7__cxx118numpunctIcED0Ev
libcairomm-1.16.so.1:_ZNSt7__cxx118numpunctIcED1Ev
libcairomm-1.16.so.1:_ZNSt7__cxx118numpunctIcED2Ev
libcairomm-1.16.so.1:_ZNSt7__cxx118numpunctIwE22_M_initialize_numpunctEP15__locale_struct
libcairomm-1.16.so.1:_ZNSt7__cxx118numpunctIwED0Ev
libcairomm-1.16.so.1:_ZNSt7__cxx118numpunctIwED1Ev
libcairomm-1.16.so.1:_ZNSt7__cxx118numpunctIwED2Ev
libcairomm-1.16.so.1:_ZNSt7codecvtIDiDu11__mbstate_tED0Ev
libcairomm-1.16.so.1:_ZNSt7codecvtIDiDu11__mbstate_tED1Ev
libcairomm-1.16.so.1:_ZNSt7codecvtIDiDu11__mbstate_tED2Ev
libcairomm-1.16.so.1:_ZNSt7codecvtIDic11__mbstate_tED0Ev
libcairomm-1.16.so.1:_ZNSt7codecvtIDic11__mbstate_tED1Ev
libcairomm-1.16.so.1:_ZNSt7codecvtIDic11__mbstate_tED2Ev
libcairomm-1.16.so.1:_ZNSt7codecvtIDsDu11__mbstate_tED0Ev
libcairomm-1.16.so.1:_ZNSt7codecvtIDsDu11__mbstate_tED1Ev
libcairomm-1.16.so.1:_ZNSt7codecvtIDsDu11__mbstate_tED2Ev
libcairomm-1.16.so.1:_ZNSt7codecvtIDsc11__mbstate_tED0Ev
libcairomm-1.16.so.1:_ZNSt7codecvtIDsc11__mbstate_tED1Ev
libcairomm-1.16.so.1:_ZNSt7codecvtIDsc11__mbstate_tED2Ev
libcairomm-1.16.so.1:_ZNSt7codecvtIcc11__mbstate_tEC1EP15__locale_structm
libcairomm-1.16.so.1:_ZNSt7codecvtIcc11__mbstate_tEC1Em
libcairomm-1.16.so.1:_ZNSt7codecvtIcc11__mbstate_tEC2EP15__locale_structm
libcairomm-1.16.so.1:_ZNSt7codecvtIcc11__mbstate_tEC2Em
libcairomm-1.16.so.1:_ZNSt7codecvtIcc11__mbstate_tED0Ev
libcairomm-1.16.so.1:_ZNSt7codecvtIcc11__mbstate_tED1Ev
libcairomm-1.16.so.1:_ZNSt7codecvtIcc11__mbstate_tED2Ev
libcairomm-1.16.so.1:_ZNSt7codecvtIwc11__mbstate_tEC1EP15__locale_structm
libcairomm-1.16.so.1:_ZNSt7codecvtIwc11__mbstate_tEC1Em
libcairomm-1.16.so.1:_ZNSt7codecvtIwc11__mbstate_tEC2EP15__locale_structm
libcairomm-1.16.so.1:_ZNSt7codecvtIwc11__mbstate_tEC2Em
libcairomm-1.16.so.1:_ZNSt7codecvtIwc11__mbstate_tED0Ev
libcairomm-1.16.so.1:_ZNSt7codecvtIwc11__mbstate_tED1Ev
libcairomm-1.16.so.1:_ZNSt7codecvtIwc11__mbstate_tED2Ev
libcairomm-1.16.so.1:_ZNSt8Catalogs6_M_addEPKcSt6locale
libcairomm-1.16.so.1:_ZNSt8Catalogs8_M_eraseEi
libcairomm-1.16.so.1:_ZNSt8CatalogsD1Ev
libcairomm-1.16.so.1:_ZNSt8CatalogsD2Ev
libcairomm-1.16.so.1:_ZNSt8bad_castD0Ev
libcairomm-1.16.so.1:_ZNSt8bad_castD1Ev
libcairomm-1.16.so.1:_ZNSt8bad_castD2Ev
libcairomm-1.16.so.1:_ZNSt8ios_base13_M_grow_wordsEib
libcairomm-1.16.so.1:_ZNSt8ios_base15sync_with_stdioEb
libcairomm-1.16.so.1:_ZNSt8ios_base17_M_call_callbacksENS_5eventE
libcairomm-1.16.so.1:_ZNSt8ios_base17register_callbackEPFvNS_5eventERS_iEi
libcairomm-1.16.so.1:_ZNSt8ios_base20_M_dispose_callbacksEv
libcairomm-1.16.so.1:_ZNSt8ios_base4InitC1Ev
libcairomm-1.16.so.1:_ZNSt8ios_base4InitC2Ev
libcairomm-1.16.so.1:_ZNSt8ios_base4InitD1Ev
libcairomm-1.16.so.1:_ZNSt8ios_base4InitD2Ev
libcairomm-1.16.so.1:_ZNSt8ios_base5imbueERKSt6locale
libcairomm-1.16.so.1:_ZNSt8ios_base6xallocEv
libcairomm-1.16.so.1:_ZNSt8ios_base7_M_initEv
libcairomm-1.16.so.1:_ZNSt8ios_base7_M_moveERS_
libcairomm-1.16.so.1:_ZNSt8ios_base7_M_swapERS_
libcairomm-1.16.so.1:_ZNSt8ios_base7failureB5cxx11C1EPKcRKSt10error_code
libcairomm-1.16.so.1:_ZNSt8ios_base7failureB5cxx11C1ERKNSt7__cxx1112basic_stringIcSt11char_traitsIcESaIcEEE
libcairomm-1.16.so.1:_ZNSt8ios_base7failureB5cxx11C1ERKNSt7__cxx1112basic_stringIcSt11char_traitsIcESaIcEEERKSt10error_code
libcairomm-1.16.so.1:_ZNSt8ios_base7failureB5cxx11C2EPKcRKSt10error_code
libcairomm-1.16.so.1:_ZNSt8ios_base7failureB5cxx11C2ERKNSt7__cxx1112basic_stringIcSt11char_traitsIcESaIcEEE
libcairomm-1.16.so.1:_ZNSt8ios_base7failureB5cxx11C2ERKNSt7__cxx1112basic_stringIcSt11char_traitsIcESaIcEEERKSt10error_code
libcairomm-1.16.so.1:_ZNSt8ios_base7failureB5cxx11D0Ev
libcairomm-1.16.so.1:_ZNSt8ios_base7failureB5cxx11D1Ev
libcairomm-1.16.so.1:_ZNSt8ios_base7failureB5cxx11D2Ev
libcairomm-1.16.so.1:_ZNSt8ios_base7failureC1ERKSs
libcairomm-1.16.so.1:_ZNSt8ios_base7failureC2ERKSs
libcairomm-1.16.so.1:_ZNSt8ios_base7failureD0Ev
libcairomm-1.16.so.1:_ZNSt8ios_base7failureD1Ev
libcairomm-1.16.so.1:_ZNSt8ios_base7failureD2Ev
libcairomm-1.16.so.1:_ZNSt8ios_baseC1Ev
libcairomm-1.16.so.1:_ZNSt8ios_baseC2Ev
libcairomm-1.16.so.1:_ZNSt8ios_baseD0Ev
libcairomm-1.16.so.1:_ZNSt8ios_baseD1Ev
libcairomm-1.16.so.1:_ZNSt8ios_baseD2Ev
libcairomm-1.16.so.1:_ZNSt8numpunctIcE22_M_initialize_numpunctEP15__locale_struct
libcairomm-1.16.so.1:_ZNSt8numpunctIcED0Ev
libcairomm-1.16.so.1:_ZNSt8numpunctIcED1Ev
libcairomm-1.16.so.1:_ZNSt8numpunctIcED2Ev
libcairomm-1.16.so.1:_ZNSt8numpunctIwE22_M_initialize_numpunctEP15__locale_struct
libcairomm-1.16.so.1:_ZNSt8numpunctIwED0Ev
libcairomm-1.16.so.1:_ZNSt8numpunctIwED1Ev
libcairomm-1.16.so.1:_ZNSt8numpunctIwED2Ev
libcairomm-1.16.so.1:_ZNSt9bad_allocD0Ev
libcairomm-1.16.so.1:_ZNSt9bad_allocD1Ev
libcairomm-1.16.so.1:_ZNSt9bad_allocD2Ev
libcairomm-1.16.so.1:_ZNSt9exceptionD0Ev
libcairomm-1.16.so.1:_ZNSt9exceptionD1Ev
libcairomm-1.16.so.1:_ZNSt9exceptionD2Ev
libcairomm-1.16.so.1:_ZNSt9type_infoD0Ev
libcairomm-1.16.so.1:_ZNSt9type_infoD1Ev
libcairomm-1.16.so.1:_ZNSt9type_infoD2Ev
libcairomm-1.16.so.1:_ZSt10unexpectedv
libcairomm-1.16.so.1:_ZSt12get_catalogsv
libcairomm-1.16.so.1:_ZSt13get_terminatev
libcairomm-1.16.so.1:_ZSt13set_terminatePFvvE
libcairomm-1.16.so.1:_ZSt14__convert_to_vIdEvPKcRT_RSt12_Ios_IostateRKP15__locale_struct
libcairomm-1.16.so.1:_ZSt14__convert_to_vIeEvPKcRT_RSt12_Ios_IostateRKP15__locale_struct
libcairomm-1.16.so.1:_ZSt14__convert_to_vIfEvPKcRT_RSt12_Ios_IostateRKP15__locale_struct
libcairomm-1.16.so.1:_ZSt14get_unexpectedv
libcairomm-1.16.so.1:_ZSt14set_unexpectedPFvvE
libcairomm-1.16.so.1:_ZSt15get_new_handlerv
libcairomm-1.16.so.1:_ZSt15set_new_handlerPFvvE
libcairomm-1.16.so.1:_ZSt16__throw_bad_castv
libcairomm-1.16.so.1:_ZSt17__istream_extractRSiPcl
libcairomm-1.16.so.1:_ZSt17__throw_bad_allocv
libcairomm-1.16.so.1:_ZSt17__verify_groupingPKcmRKNSt7__cxx1112basic_stringIcSt11char_traitsIcESaIcEEE
libcairomm-1.16.so.1:_ZSt17__verify_groupingPKcmRKSs
libcairomm-1.16.so.1:_ZSt17iostream_categoryv
libcairomm-1.16.so.1:_ZSt18__throw_bad_typeidv
libcairomm-1.16.so.1:_ZSt18uncaught_exceptionv
libcairomm-1.16.so.1:_ZSt19__throw_ios_failurePKc
libcairomm-1.16.so.1:_ZSt19__throw_ios_failurePKci
libcairomm-1.16.so.1:_ZSt19__throw_logic_errorPKc
libcairomm-1.16.so.1:_ZSt19__throw_range_errorPKc
libcairomm-1.16.so.1:_ZSt19uncaught_exceptionsv
libcairomm-1.16.so.1:_ZSt20__throw_domain_errorPKc
libcairomm-1.16.so.1:_ZSt20__throw_length_errorPKc
libcairomm-1.16.so.1:_ZSt20__throw_out_of_rangePKc
libcairomm-1.16.so.1:_ZSt20__throw_system_errori
libcairomm-1.16.so.1:_ZSt21__copy_streambufs_eofIcSt11char_traitsIcEElPSt15basic_streambufIT_T0_ES6_Rb
libcairomm-1.16.so.1:_ZSt21__copy_streambufs_eofIwSt11char_traitsIwEElPSt15basic_streambufIT_T0_ES6_Rb
libcairomm-1.16.so.1:_ZSt21__destroy_ios_failurePv
libcairomm-1.16.so.1:_ZSt21__throw_bad_exceptionv
libcairomm-1.16.so.1:_ZSt21__throw_runtime_errorPKc
libcairomm-1.16.so.1:_ZSt22__throw_overflow_errorPKc
libcairomm-1.16.so.1:_ZSt22__verify_grouping_implPKcmS0_m
libcairomm-1.16.so.1:_ZSt23__construct_ios_failurePvPKc
libcairomm-1.16.so.1:_ZSt23__throw_underflow_errorPKc
libcairomm-1.16.so.1:_ZSt24__is_ios_failure_handlerPKN10__cxxabiv117__class_type_infoE
libcairomm-1.16.so.1:_ZSt24__narrow_multibyte_charsPKcP15__locale_struct
libcairomm-1.16.so.1:_ZSt24__throw_invalid_argumentPKc
libcairomm-1.16.so.1:_ZSt24__throw_out_of_range_fmtPKcz
libcairomm-1.16.so.1:_ZSt28__throw_bad_array_new_lengthv
libcairomm-1.16.so.1:_ZSt9terminatev
libcairomm-1.16.so.1:_ZdaPv
libcairomm-1.16.so.1:_ZdlPv
libcairomm-1.16.so.1:_ZdlPvm
libcairomm-1.16.so.1:_Znam
libcairomm-1.16.so.1:_ZnamRKSt9nothrow_t
libcairomm-1.16.so.1:_Znwm
libcairomm-1.16.so.1:__cxa_allocate_dependent_exception
libcairomm-1.16.so.1:__cxa_allocate_exception
libcairomm-1.16.so.1:__cxa_bad_cast
libcairomm-1.16.so.1:__cxa_bad_typeid
libcairomm-1.16.so.1:__cxa_begin_catch
libcairomm-1.16.so.1:__cxa_call_terminate
libcairomm-1.16.so.1:__cxa_call_unexpected
libcairomm-1.16.so.1:__cxa_current_exception_type
libcairomm-1.16.so.1:__cxa_demangle
libcairomm-1.16.so.1:__cxa_end_catch
libcairomm-1.16.so.1:__cxa_free_dependent_exception
libcairomm-1.16.so.1:__cxa_free_exception
libcairomm-1.16.so.1:__cxa_get_exception_ptr
libcairomm-1.16.so.1:__cxa_get_globals
libcairomm-1.16.so.1:__cxa_get_globals_fast
libcairomm-1.16.so.1:__cxa_guard_abort
libcairomm-1.16.so.1:__cxa_guard_acquire
libcairomm-1.16.so.1:__cxa_guard_release
libcairomm-1.16.so.1:__cxa_init_primary_exception
libcairomm-1.16.so.1:__cxa_rethrow
libcairomm-1.16.so.1:__cxa_throw
libcairomm-1.16.so.1:__cxa_throw_bad_array_new_length
libcairomm-1.16.so.1:__dynamic_cast
libcairomm-1.16.so.1:__gcclibcxx_demangle_callback
libcairomm-1.16.so.1:__gxx_personality_v0
